(dp0
S'xvocab_size'
p1
I6004
sS'emb_dim'
p2
I1024
sS'w2idx'
p3
(dp4
S'yellow'
p5
I5663
sS'four'
p6
I1396
sS'hanging'
p7
I896
sS'looking'
p8
I276
sS'eligible'
p9
I1580
sS'unanswered'
p10
I4374
sS'refunding'
p11
I3822
sS'lord'
p12
I5474
sS'digit'
p13
I3288
sS'regional'
p14
I3510
sS'bringing'
p15
I1110
sS'internally'
p16
I1874
sS'prize'
p17
I5019
sS'wednesday'
p18
I1903
sS'iryna'
p19
I4274
sS'reliable'
p20
I3758
sS'charter'
p21
I5181
sS'tired'
p22
I1551
sS'bacon'
p23
I4679
sS'second'
p24
I731
sS'errors'
p25
I2188
sS'fingers'
p26
I1022
sS'300er'
p27
I5244
sS'no1'
p28
I5741
sS'admiral'
p29
I4673
sS'specialist'
p30
I1576
sS'hero'
p31
I4685
sS'here'
p32
I84
sS'reported'
p33
I1248
sS'buddy'
p34
I4962
sS'kids'
p35
I817
sS'k'
p36
I2255
sS'reports'
p37
I3050
sS'45mins'
p38
I5258
sS'military'
p39
I1867
sS'cancellation'
p40
I745
sS'golden'
p41
I5831
sS'txl'
p42
I5189
sS'explained'
p43
I2745
sS'183jh_'
p44
I2308
sS'replace'
p45
I2835
sS'brought'
p46
I1931
sS'cheating'
p47
I5557
sS'spoke'
p48
I1347
sS'schiphol'
p49
I2028
sS'music'
p50
I1236
sS'therefore'
p51
I1465
sS'passport'
p52
I714
sS'strike'
p53
I1540
sS'until'
p54
I412
sS'paperwork'
p55
I2365
sS'relay'
p56
I2579
sS'relax'
p57
I1475
sS'successful'
p58
I2870
sS'brings'
p59
I4283
sS'hols'
p60
I4772
sS'hurt'
p61
I3692
sS'99'
p62
I2879
sS'glass'
p63
I2654
sS'90'
p64
I1291
sS'hole'
p65
I4453
sS'hold'
p66
I282
sS'95'
p67
I3889
sS'circumstances'
p68
I1780
sS'locked'
p69
I2743
sS'locker'
p70
I5197
sS'example'
p71
I2530
sS'organized'
p72
I5935
sS'currency'
p73
I4219
sS'reviewing'
p74
I3528
sS'want'
p75
I140
sS'absolute'
p76
I1470
sS'complaining'
p77
I3025
sS'hoo'
p78
I3219
sS'travel'
p79
I124
sS'damage'
p80
I1292
sS'machine'
p81
I2788
sS'how'
p82
I86
sS'hot'
p83
I1231
sS'hou'
p84
I2806
sS'hop'
p85
I3801
sS'place'
p86
I753
sS'beauty'
p87
I2947
sS'kuda'
p88
I5489
sS'wrong'
p89
I541
sS'types'
p90
I3507
sS'effective'
p91
I5038
sS'helsinki'
p92
I5607
sS'wins'
p93
I5024
sS'baggage'
p94
I113
sS'18th'
p95
I3798
sS'keeps'
p96
I1120
sS'wing'
p97
I3138
sS'wind'
p98
I3740
sS'wine'
p99
I1775
sS'restriction'
p100
I4024
sS'feedback'
p101
I174
sS'welcomed'
p102
I5603
sS'vary'
p103
I2123
sS'fit'
p104
I1268
sS'unforeseen'
p105
I5442
sS'screaming'
p106
I4071
sS'fix'
p107
I651
sS'hidden'
p108
I4305
sS'easier'
p109
I1582
sS'vouchers'
p110
I883
sS'silver'
p111
I1073
sS'saddened'
p112
I4412
sS'queues'
p113
I2520
sS'series'
p114
I3975
sS'2day'
p115
I3210
sS'mdw'
p116
I2020
sS'rt'
p117
I2076
sS'forwarding'
p118
I4236
sS'rr'
p119
I2617
sS'rs'
p120
I1994
sS'ha'
p121
I2982
sS'waive'
p122
I2249
sS'sms'
p123
I3787
sS'rd'
p124
I2347
sS're'
p125
I522
sS'encourage'
p126
I2630
sS'dsm'
p127
I4550
sS'rb'
p128
I1962
sS'smh'
p129
I1890
sS'smf'
p130
I3818
sS'rn'
p131
I5720
sS'assured'
p132
I978
sS'estimate'
p133
I3230
sS'ate'
p134
I5650
sS'atc'
p135
I2211
sS'atl'
p136
I502
sS'atm'
p137
I5508
sS'ups'
p138
I3899
sS'shipped'
p139
I5726
sS'speedy'
p140
I1980
sS'9pm'
p141
I3481
sS'resetting'
p142
I5798
sS'atx'
p143
I5618
sS'48hrs'
p144
I4913
sS'channels'
p145
I3051
sS'wash'
p146
I5475
sS'olds'
p147
I5760
sS'service'
p148
I69
sS'engagement'
p149
I5240
sS'needed'
p150
I616
sS'listed'
p151
I1624
sS'hiya'
p152
I4834
sS'listen'
p153
I2500
sS'rewards'
p154
I1090
sS'rectified'
p155
I5361
sS'showed'
p156
I2097
sS'shower'
p157
I3748
sS'feeling'
p158
I1123
sS'recheck'
p159
I4061
sS'etihad'
p160
I4553
sS'esta'
p161
I4483
sS'boston'
p162
I903
sS'dozen'
p163
I5676
sS'affairs'
p164
I5997
sS'mostly'
p165
I4031
sS'responsible'
p166
I2181
sS'recommended'
p167
I3857
sS'causing'
p168
I1581
sS'lumpur'
p169
I4725
sS'doors'
p170
I2730
sS'shall'
p171
I1900
sS'thrilled'
p172
I1408
sS'huh'
p173
I3148
sS'mouth'
p174
I5932
sS'letter'
p175
I1215
sS'entry'
p176
I2381
sS'emailing'
p177
I3664
sS'camp'
p178
I5828
sS'tech'
p179
I1808
sS'came'
p180
I1142
sS'saying'
p181
I738
sS'departing'
p182
I936
sS'meetings'
p183
I2894
sS'reschedule'
p184
I2025
sS'gauge'
p185
I5622
sS'participate'
p186
I5560
sS'orleans'
p187
I3293
sS'busy'
p188
I683
sS'clicked'
p189
I4946
sS'menu'
p190
I2269
sS'than'
p191
I216
sS'preboarding'
p192
I5045
sS'touched'
p193
I5300
sS'rica'
p194
I3289
sS'plate'
p195
I5998
sS'pocket'
p196
I2131
sS'nicely'
p197
I3856
sS'release'
p198
I1609
sS'boarded'
p199
I974
sS'respond'
p200
I573
sS'mandatory'
p201
I5268
sS'disaster'
p202
I2518
sS'fair'
p203
I1464
sS'result'
p204
I2162
sS'fail'
p205
I664
sS'best'
p206
I169
sS'lots'
p207
I1184
sS'4hr'
p208
I4652
sS'score'
p209
I3850
sS'glasgow'
p210
I1402
sS'men'
p211
I4028
sS'extend'
p212
I2540
sS'nature'
p213
I2011
sS'rolled'
p214
I5208
sS'wtf'
p215
I1369
sS'wth'
p216
I3575
sS'roller'
p217
I5709
sS'pity'
p218
I4989
sS'accident'
p219
I4149
sS'lgbt'
p220
I5515
sS'country'
p221
I1094
sS'adventures'
p222
I3999
sS'planned'
p223
I1190
sS'logic'
p224
I5416
sS'login'
p225
I2019
sS'asked'
p226
I737
sS'30th'
p227
I2832
sS'miscommunication'
p228
I3601
sS'2nd'
p229
I898
sS'252'
p230
I4468
sS'diff'
p231
I2234
sS'250'
p232
I3150
sS'fra'
p233
I2290
sS'billing'
p234
I3790
sS'chrome'
p235
I1781
sS'fri'
p236
I2434
sS'fro'
p237
I5868
sS'frm'
p238
I3044
sS'.'
p239
I2
sS'much'
p240
I195
sS'privilege'
p241
I4707
sS'incompetent'
p242
I2348
sS'25k'
p243
I5601
sS'life'
p244
I828
sS'crying'
p245
I3088
sS'eastern'
p246
I5431
sS'worker'
p247
I3997
sS'wish'
p248
I387
sS'lift'
p249
I2559
sS'chile'
p250
I4627
sS'child'
p251
I1119
sS'worked'
p252
I971
sS'chill'
p253
I4975
sS'zendell'
p254
I918
sS'elaborate'
p255
I1404
sS'bin'
p256
I2195
sS'played'
p257
I3550
sS'smoothest'
p258
I4690
sS'trusted'
p259
I5947
sS'damaged'
p260
I1183
sS'things'
p261
I564
sS'split'
p262
I2379
sS'babies'
p263
I3069
sS'european'
p264
I2972
sS'fairly'
p265
I4352
sS'aeroplan'
p266
I4163
sS'worstairlineever'
p267
I5188
sS'corporate'
p268
I1941
sS'browsing'
p269
I3655
sS'????'
p270
I1869
sS'birmingham'
p271
I3105
sS'credited'
p272
I2451
sS'previous'
p273
I966
sS'ham'
p274
I5636
sS'ease'
p275
I3491
sS'had'
p276
I119
sS'easy'
p277
I810
sS'bna'
p278
I2051
sS'has'
p279
I109
sS'hat'
p280
I3401
sS'bne'
p281
I2908
sS'possible'
p282
I180
sS'possibly'
p283
I1752
sS'birth'
p284
I1477
sS'unique'
p285
I4170
sS'massively'
p286
I5857
sS'steph'
p287
I3115
sS'remind'
p288
I3285
sS'steps'
p289
I1738
sS'right'
p290
I263
sS'old'
p291
I517
sS'crowd'
p292
I5392
sS'people'
p293
I300
sS'weds'
p294
I5707
sS'crown'
p295
I5482
sS'for'
p296
I8
sS'bottom'
p297
I2890
sS'creative'
p298
I5248
sS'disheartened'
p299
I4270
sS'fog'
p300
I1811
sS'losing'
p301
I1238
sS'memorable'
p302
I3737
sS'dollars'
p303
I2164
sS'o'
p304
I849
sS'stoked'
p305
I5327
sS'slightly'
p306
I2706
sS'raised'
p307
I3455
sS'facility'
p308
I4730
sS'honeymoon'
p309
I881
sS'son'
p310
I1050
sS'thankful'
p311
I2376
sS'sos'
p312
I5472
sS'wrap'
p313
I4987
sS'waits'
p314
I5366
sS'altitude'
p315
I5071
sS'constantly'
p316
I1745
sS'avail'
p317
I2165
sS'width'
p318
I4515
sS'authorized'
p319
I5383
sS'resulted'
p320
I5254
sS'overhead'
p321
I1178
sS'fco'
p322
I2602
sS'happy'
p323
I110
sS'offer'
p324
I349
sS'paypal'
p325
I4041
sS'notifications'
p326
I2411
sS'aadvantage'
p327
I846
sS'understandable'
p328
I3454
sS'significantly'
p329
I4942
sS'24hr'
p330
I3854
sS'congratulations'
p331
I1312
sS'inside'
p332
I1711
sS'devices'
p333
I2786
sS'nicest'
p334
I3398
sS'passenger'
p335
I618
sS'later'
p336
I382
sS'disgrace'
p337
I2646
sS"'?"
p338
I5161
sS'exist'
p339
I2775
sS"'."
p340
I2346
sS'americanairlines'
p341
I1331
sS'crutches'
p342
I5784
sS'holy'
p343
I4099
sS'floor'
p344
I2868
sS'warms'
p345
I5130
sS'republic'
p346
I4894
sS'smell'
p347
I3035
sS'roll'
p348
I2441
sS'15p'
p349
I3861
sS'intend'
p350
I4384
sS'2720'
p351
I2651
sS'outage'
p352
I3436
sS'15a'
p353
I5551
sS'rolling'
p354
I3462
sS'nxt'
p355
I5066
sS'customerservice'
p356
I1138
sS'ottawa'
p357
I3632
sS'time'
p358
I60
sS'push'
p359
I2456
sS':-'
p360
I4955
sS':/'
p361
I2086
sS':('
p362
I569
sS':)'
p363
I143
sS'whoever'
p364
I3768
sS'chair'
p365
I3211
sS'05p'
p366
I5668
sS'veg'
p367
I5261
sS'veterans'
p368
I5664
sS'815'
p369
I3797
sS'icing'
p370
I4106
sS'prepaid'
p371
I4619
sS'choice'
p372
I1116
sS'servicing'
p373
I4636
sS'stays'
p374
I4584
sS'exact'
p375
I1650
sS'minute'
p376
I711
sS'leave'
p377
I460
sS'solved'
p378
I2206
sS'alicante'
p379
I3470
sS'team'
p380
I85
sS'loads'
p381
I3284
sS'unaware'
p382
I4822
sS'prevent'
p383
I3537
sS'sigh'
p384
I2878
sS'sign'
p385
I1114
sS'current'
p386
I859
sS'axel'
p387
I4119
sS'melb'
p388
I3380
sS'falling'
p389
I2913
sS'ground'
p390
I523
sS'zrh'
p391
I5328
sS'honour'
p392
I4695
sS'funeral'
p393
I2364
sS'understanding'
p394
I1061
sS'snack'
p395
I1839
sS'address'
p396
I275
sS'alone'
p397
I1670
sS'along'
p398
I437
sS'passengers'
p399
I303
sS'enroll'
p400
I5455
sS'redemption'
p401
I4396
sS'brilliant'
p402
I1644
sS'impacted'
p403
I2533
sS'wherever'
p404
I4637
sS'queue'
p405
I1343
sS'myers'
p406
I5439
sS'bearable'
p407
I4993
sS'departures'
p408
I2193
sS'love'
p409
I177
sS'prefer'
p410
I1304
sS'bloody'
p411
I3277
sS'fake'
p412
I2989
sS'working'
p413
I198
sS'positive'
p414
I960
sS'angry'
p415
I1920
sS'!!!!!!'
p416
I3410
sS'wondering'
p417
I1030
sS'calgary'
p418
I2029
sS'loving'
p419
I1458
sS'afford'
p420
I3314
sS'everywhere'
p421
I3316
sS'easiest'
p422
I4789
sS'behalf'
p423
I1495
sS'valued'
p424
I4057
sS'deserved'
p425
I4480
sS'laguardia'
p426
I2375
sS'originally'
p427
I2118
sS'poorservice'
p428
I2864
sS'printing'
p429
I3834
sS'values'
p430
I5627
sS'following'
p431
I422
sS'awesome'
p432
I310
sS'allowed'
p433
I660
sS'stole'
p434
I3816
sS'monitoring'
p435
I3746
sS'winter'
p436
I1986
sS'vancouver'
p437
I1912
sS'unitedairlines'
p438
I2426
sS'edinburgh'
p439
I1384
sS'explorer'
p440
I4253
sS'spot'
p441
I2110
sS'date'
p442
I398
sS'such'
p443
I475
sS'suck'
p444
I1451
sS'data'
p445
I1657
sS'stress'
p446
I1854
sS'wheelchair'
p447
I1887
sS'sw'
p448
I1886
sS'sv'
p449
I5940
sS'st'
p450
I1729
sS'so'
p451
I51
sS'sm'
p452
I4452
sS'sc'
p453
I5107
sS'sb'
p454
I2083
sS'sa'
p455
I3832
sS'sg'
p456
I2151
sS'sf'
p457
I2462
sS'sd'
p458
I1559
sS'webpage'
p459
I4094
sS'kona'
p460
I5816
sS'unacceptable'
p461
I946
sS'feature'
p462
I2352
sS'hiring'
p463
I4330
sS'mqms'
p464
I2766
sS'disconnect'
p465
I5966
sS'internationally'
p466
I4051
sS'troubles'
p467
I1693
sS'louisville'
p468
I5448
sS'aviv'
p469
I5501
sS'oversize'
p470
I5710
sS'937'
p471
I3073
sS'matches'
p472
I4528
sS'records'
p473
I3331
sS'arriving'
p474
I899
sS'sorted'
p475
I818
sS'repaired'
p476
I5692
sS'retrieve'
p477
I1884
sS'receipt'
p478
I1258
sS'sponsor'
p479
I5272
sS'entering'
p480
I3137
sS'seriously'
p481
I725
sS'investigation'
p482
I3496
sS'internet'
p483
I1379
sS'million'
p484
I2202
sS'possibility'
p485
I2679
sS'quite'
p486
I793
sS'complicated'
p487
I3963
sS'besides'
p488
I3523
sS'grandma'
p489
I3887
sS'bumpy'
p490
I3900
sS'reevaluating'
p491
I5559
sS'training'
p492
I1879
sS'retrieving'
p493
I5097
sS'routed'
p494
I4076
sS'massive'
p495
I2104
sS'routes'
p496
I1229
sS'saving'
p497
I2210
sS'spoken'
p498
I1455
sS'one'
p499
I102
sS'specifically'
p500
I2872
sS'spanish'
p501
I2968
sS'vote'
p502
I5042
sS'ons'
p503
I3447
sS'open'
p504
I438
sS'ont'
p505
I5697
sS'city'
p506
I671
sS'citi'
p507
I5069
sS'fml'
p508
I5236
sS'2'
p509
I38
sS'proving'
p510
I5325
sS'ridiculous'
p511
I748
sS'specialists'
p512
I1667
sS'photographic'
p513
I5850
sS'boyfriend'
p514
I3149
sS'future'
p515
I558
sS'#?'
p516
I1330
sS'proactive'
p517
I4401
sS'addressing'
p518
I4699
sS'illness'
p519
I5449
sS'san'
p520
I759
sS'nicer'
p521
I3928
sS'turned'
p522
I1358
sS'locations'
p523
I3162
sS'sad'
p524
I945
sS'airpoints'
p525
I3836
sS'say'
p526
I376
sS'saw'
p527
I1324
sS'sav'
p528
I5320
sS'sat'
p529
I922
sS'hawaiian'
p530
I5406
sS'wink'
p531
I4769
sS'aside'
p532
I4601
sS'15pm'
p533
I4080
sS'note'
p534
I760
sS'take'
p535
I104
sS'wanting'
p536
I2370
sS'handing'
p537
I5301
sS'printer'
p538
I3994
sS'opposite'
p539
I4267
sS'knew'
p540
I1555
sS'printed'
p541
I2194
sS'knee'
p542
I5053
sS'pages'
p543
I4144
sS'armrest'
p544
I4900
sS'average'
p545
I3437
sS'drive'
p546
I1506
sS'managing'
p547
I4829
sS'redirected'
p548
I4638
sS'salt'
p549
I3406
sS'laws'
p550
I4924
sS'walking'
p551
I3172
sS'bright'
p552
I3132
sS'inconsistent'
p553
I4814
sS'slot'
p554
I4708
sS'slow'
p555
I1407
sS'tears'
p556
I3647
sS'going'
p557
I167
sS'hockey'
p558
I4710
sS'equipped'
p559
I2689
sS'posted'
p560
I1480
sS'suitcases'
p561
I2819
sS'assistant'
p562
I5957
sS'freezing'
p563
I3589
sS'outlet'
p564
I4700
sS'awaiting'
p565
I1476
sS'resource'
p566
I4164
sS'tenerife'
p567
I4586
sS'worried'
p568
I1762
sS'liable'
p569
I5440
sS'worries'
p570
I1425
sS'where'
p571
I254
sS'xmas'
p572
I1669
sS'anyways'
p573
I4526
sS'surgery'
p574
I4614
sS'jumped'
p575
I5881
sS'8880'
p576
I2058
sS'sites'
p577
I3218
sS'sponsorship'
p578
I4613
sS'refreshed'
p579
I5918
sS'affecting'
p580
I3397
sS'uh'
p581
I2566
sS'punta'
p582
I4229
sS'jobs'
p583
I4221
sS'screen'
p584
I1257
sS'awards'
p585
I2204
sS'jets'
p586
I4087
sS'many'
p587
I417
sS'45min'
p588
I4335
sS's'
p589
I139
sS'backpack'
p590
I2527
sS'allowance'
p591
I955
sS'caring'
p592
I3357
sS'stretch'
p593
I3641
sS'west'
p594
I2227
sS'airlines'
p595
I362
sS'breath'
p596
I4870
sS'combined'
p597
I3652
sS'wants'
p598
I1806
sS'flythefriendlyskies'
p599
I4233
sS'lanes'
p600
I4884
sS'influence'
p601
I5761
sS'narita'
p602
I4372
sS'photos'
p603
I2293
sS'hashtag'
p604
I5928
sS'former'
p605
I4948
sS'engineering'
p606
I4848
sS'policies'
p607
I1896
sS'situation'
p608
I500
sS'ive'
p609
I1655
sS'purse'
p610
I3658
sS'technology'
p611
I3059
sS'verified'
p612
I4904
sS'breakdown'
p613
I5294
sS'singapore'
p614
I1391
sS'allocation'
p615
I4256
sS'booster'
p616
I5290
sS'costa'
p617
I3171
sS'tracking'
p618
I2078
sS'costs'
p619
I1207
sS'trains'
p620
I4275
sS'grumpy'
p621
I3808
sS'hubby'
p622
I3392
sS'dimension'
p623
I5891
sS'summer'
p624
I1387
sS'being'
p625
I257
sS'rest'
p626
I610
sS'reimbursed'
p627
I2499
sS'weekly'
p628
I3204
sS'grounded'
p629
I3151
sS'instrument'
p630
I4806
sS'westjetchristmas'
p631
I4298
sS'(@'
p632
I2439
sS'skies'
p633
I1356
sS'around'
p634
I542
sS'dark'
p635
I4013
sS'()'
p636
I4315
sS'traffic'
p637
I937
sS'darn'
p638
I3566
sS'world'
p639
I666
sS'postal'
p640
I4060
sS'dare'
p641
I5689
sS'satisfaction'
p642
I4005
sS'seating'
p643
I761
sS'ezy'
p644
I5529
sS'tvs'
p645
I2303
sS'eze'
p646
I4940
sS'thinks'
p647
I3609
sS'dimensions'
p648
I1537
sS'memories'
p649
I3005
sS'noon'
p650
I3303
sS'graeme'
p651
I4367
sS'exit'
p652
I1195
sS'23rd'
p653
I4118
sS'refundable'
p654
I1733
sS'refer'
p655
I1483
sS'accessing'
p656
I4741
sS'power'
p657
I1170
sS'leadership'
p658
I844
sS';&'
p659
I132
sS'thailand'
p660
I4929
sS';)'
p661
I684
sS'acc'
p662
I5278
sS'package'
p663
I2464
sS'industry'
p664
I2318
sS'favorite'
p665
I1125
sS'side'
p666
I1372
sS'act'
p667
I2237
sS'luck'
p668
I913
sS'image'
p669
I3427
sS'noone'
p670
I5723
sS'parties'
p671
I5456
sS'tropical'
p672
I5967
sS'her'
p673
I266
sS'hey'
p674
I207
sS'garment'
p675
I4953
sS'project'
p676
I5252
sS'complete'
p677
I612
sS'mick'
p678
I5727
sS'unreliable'
p679
I4354
sS'with'
p680
I25
sS'buying'
p681
I2116
sS'pull'
p682
I2429
sS'rush'
p683
I3272
sS'october'
p684
I1299
sS'hooray'
p685
I4639
sS'operationally'
p686
I4323
sS'dirty'
p687
I2725
sS'agree'
p688
I1173
sS'aa'
p689
I308
sS'followup'
p690
I1071
sS'ac'
p691
I590
sS'ab'
p692
I2153
sS'ad'
p693
I2108
sS'af'
p694
I2307
sS'exhausted'
p695
I3950
sS'ah'
p696
I1424
sS'stealing'
p697
I5276
sS'am'
p698
I49
sS'al'
p699
I5708
sS'an'
p700
I58
sS'ap'
p701
I1441
sS'as'
p702
I45
sS'au'
p703
I5270
sS'at'
p704
I37
sS'aw'
p705
I2232
sS'watched'
p706
I2930
sS'az'
p707
I4805
sS'cream'
p708
I4181
sS'tight'
p709
I2166
sS'puppy'
p710
I5025
sS'disgraceful'
p711
I2813
sS'refunded'
p712
I1546
sS'gifts'
p713
I3553
sS'mechanical'
p714
I900
sS'iflyalaska'
p715
I1883
sS'cph'
p716
I4128
sS'waived'
p717
I2912
sS'hello'
p718
I161
sS'cpt'
p719
I4109
sS'original'
p720
I787
sS'waiver'
p721
I2728
sS'scl'
p722
I4959
sS'consider'
p723
I1740
sS'caused'
p724
I406
sS'beware'
p725
I5194
sS'mnl'
p726
I5950
sS'causes'
p727
I3830
sS'attentive'
p728
I4467
sS'tx'
p729
I2357
sS'ty'
p730
I1259
sS'tv'
p731
I840
sS'tt'
p732
I5158
sS'tp'
p733
I3729
sS'to'
p734
I3
sS'tail'
p735
I3704
sS'tj'
p736
I5990
sS'tk'
p737
I5728
sS'th'
p738
I5403
sS'smile'
p739
I1467
sS'te'
p740
I5631
sS'homepage'
p741
I4737
sS'norm'
p742
I3912
sS'ta'
p743
I5770
sS'case'
p744
I314
sS'appointment'
p745
I5796
sS'returned'
p746
I1575
sS'checkin'
p747
I869
sS'rm'
p748
I5111
sS'24th'
p749
I3839
sS'condition'
p750
I3792
sS'17th'
p751
I3991
sS't4'
p752
I5469
sS't5'
p753
I1237
sS't2'
p754
I5040
sS't3'
p755
I2695
sS't1'
p756
I5771
sS'large'
p757
I2191
sS'adjust'
p758
I3399
sS'small'
p759
I935
sS'referred'
p760
I5693
sS'pbi'
p761
I3248
sS'quicker'
p762
I3008
sS'past'
p763
I788
sS'pass'
p764
I178
sS'clock'
p765
I4056
sS'disruptions'
p766
I1868
sS'section'
p767
I2080
sS'method'
p768
I4343
sS'full'
p769
I271
sS'25pm'
p770
I5747
sS'hours'
p771
I141
sS'november'
p772
I1714
sS'brutal'
p773
I3718
sS'pics'
p774
I2528
sS'prior'
p775
I757
sS'pick'
p776
I992
sS'action'
p777
I2023
sS'via'
p778
I162
sS'followed'
p779
I1858
sS'ours'
p780
I2263
sS'terribleservice'
p781
I5425
sS'vip'
p782
I4146
sS'gosh'
p783
I5893
sS'select'
p784
I809
sS'855'
p785
I5547
sS'morn'
p786
I4216
sS'gorgeous'
p787
I2182
sS'more'
p788
I96
sS'door'
p789
I1524
sS'company'
p790
I674
sS'corrected'
p791
I3811
sS'rudeness'
p792
I1054
sS'keeping'
p793
I1135
sS'klm'
p794
I655
sS'installing'
p795
I5269
sS'5225'
p796
I1583
sS'sent'
p797
I320
sS'learn'
p798
I990
sS'male'
p799
I4088
sS'beautiful'
p800
I724
sS'prompt'
p801
I2398
sS'scan'
p802
I3348
sS'suggestions'
p803
I2061
sS'accept'
p804
I804
sS'states'
p805
I2103
sS'sense'
p806
I1320
sS'ist'
p807
I5331
sS'dress'
p808
I2420
sS'huge'
p809
I957
sS'plans'
p810
I619
sS'plane'
p811
I131
sS'refuse'
p812
I2576
sS'register'
p813
I2891
sS'replied'
p814
I1155
sS'1300'
p815
I5755
sS'bowl'
p816
I4751
sS'trade'
p817
I4587
sS'attitude'
p818
I1383
sS'paper'
p819
I2160
sS'signs'
p820
I4082
sS'krisflyer'
p821
I4531
sS'its'
p822
I369
sS'493'
p823
I3104
sS'bummed'
p824
I3529
sS'ruining'
p825
I1700
sS'bummer'
p826
I2458
sS'inquiry'
p827
I2917
sS'travelling'
p828
I607
sS'sauce'
p829
I4397
sS'ally'
p830
I5544
sS'colleague'
p831
I2273
sS'entire'
p832
I994
sS'aircanada'
p833
I3109
sS'sucked'
p834
I5656
sS'everytime'
p835
I3450
sS'always'
p836
I175
sS'isle'
p837
I4532
sS'ttot'
p838
I4781
sS'1am'
p839
I3571
sS'found'
p840
I372
sS'shocking'
p841
I1766
sS'disorganized'
p842
I4686
sS'week'
p843
I341
sS'england'
p844
I3093
sS'2hr'
p845
I3062
sS'reduce'
p846
I3473
sS'police'
p847
I3295
sS'finish'
p848
I2521
sS'operation'
p849
I1720
sS'really'
p850
I191
sS'try'
p851
I252
sS'missed'
p852
I366
sS'ftw'
p853
I5460
sS'research'
p854
I2264
sS'misses'
p855
I5807
sS'offline'
p856
I5854
sS'occurs'
p857
I4514
sS'cockpit'
p858
I2777
sS'qualify'
p859
I2369
sS'3hrs'
p860
I2771
sS'conditioning'
p861
I3961
sS'imagine'
p862
I2337
sS'bumped'
p863
I1595
sS'pairs'
p864
I3695
sS'w'
p865
I280
sS'major'
p866
I1726
sS'unusable'
p867
I5459
sS'changing'
p868
I872
sS'differ'
p869
I5150
sS'heads'
p870
I1987
sS'guest'
p871
I1588
sS'jet'
p872
I1160
sS'dfw'
p873
I458
sS'checkpoint'
p874
I4925
sS'relationship'
p875
I3480
sS'immediate'
p876
I1788
sS'appreciation'
p877
I3019
sS'consult'
p878
I5355
sS'stairs'
p879
I4757
sS'grace'
p880
I4254
sS'legs'
p881
I2146
sS'condolences'
p882
I3986
sS'getaway'
p883
I4383
sS'determined'
p884
I2732
sS'marriage'
p885
I3330
sS'bhm'
p886
I4545
sS'canceling'
p887
I1805
sS'beforehand'
p888
I3976
sS'livery'
p889
I2669
sS'bhx'
p890
I3494
sS'sell'
p891
I1759
sS'self'
p892
I2044
sS'also'
p893
I250
sS'recognizing'
p894
I3402
sS'internal'
p895
I1827
sS'directives'
p896
I4865
sS'flts'
p897
I2246
sS'skypriority'
p898
I4874
sS'play'
p899
I1925
sS'plat'
p900
I2634
sS'unused'
p901
I3337
sS'virus'
p902
I5753
sS'plan'
p903
I892
sS'accepting'
p904
I4172
sS'omaha'
p905
I4334
sS'tpa'
p906
I2185
sS'sometimes'
p907
I925
sS'cover'
p908
I1658
sS'exp'
p909
I2366
sS'gabe'
p910
I1315
sS'ugh'
p911
I1634
sS'golf'
p912
I2107
sS'gold'
p913
I697
sS'accommodations'
p914
I2087
sS'bookings'
p915
I1168
sS'session'
p916
I5020
sS'fianc'
p917
I4722
sS'impact'
p918
I2611
sS'failed'
p919
I1620
sS'factor'
p920
I5377
sS'boarding'
p921
I201
sS'sunny'
p922
I2789
sS'resent'
p923
I5461
sS'remedy'
p924
I5775
sS'closely'
p925
I3294
sS'resend'
p926
I3322
sS'virginatlantic'
p927
I5804
sS'cry'
p928
I3542
sS'kill'
p929
I4273
sS'approaching'
p930
I4476
sS'insane'
p931
I3006
sS'set'
p932
I770
sS'sep'
p933
I3273
sS'rescheduling'
p934
I4090
sS'see'
p935
I80
sS'sec'
p936
I5393
sS'sea'
p937
I997
sS'aberdeen'
p938
I3497
sS'knees'
p939
I4813
sS'#'
p940
I22
sS'spirits'
p941
I4995
sS'movie'
p942
I1882
sS'currently'
p943
I455
sS'pickup'
p944
I5722
sS'nope'
p945
I1639
sS'compliment'
p946
I947
sS'knowing'
p947
I2314
sS'losangeles'
p948
I6001
sS'incident'
p949
I1934
sS'last'
p950
I184
sS'pdx'
p951
I1446
sS'barely'
p952
I2681
sS'connection'
p953
I332
sS'pdf'
p954
I3922
sS'whole'
p955
I908
sS'load'
p956
I1619
sS'):'
p957
I5757
sS')?'
p958
I1875
sS'drunk'
p959
I4548
sS'community'
p960
I3619
sS'coincidence'
p961
I5724
sS'))'
p962
I5586
sS'agents'
p963
I288
sS'),'
p964
I1413
sS').'
p965
I691
sS')!'
p966
I4018
sS'tj893_'
p967
I5123
sS'belt'
p968
I2301
sS'worthless'
p969
I4332
sS'monthly'
p970
I5965
sS'hitting'
p971
I4409
sS'fire'
p972
I2315
sS'awake'
p973
I5119
sS'representative'
p974
I1872
sS'nrt'
p975
I3086
sS'inclement'
p976
I4633
sS'handling'
p977
I1498
sS'hostess'
p978
I5577
sS'straight'
p979
I1645
sS'budget'
p980
I2995
sS'receive'
p981
I527
sS'evaluating'
p982
I5405
sS'error'
p983
I509
sS'owed'
p984
I5968
sS'hoping'
p985
I822
sS'calculator'
p986
I4863
sS'alaska'
p987
I1345
sS'chase'
p988
I2883
sS'funny'
p989
I1721
sS'sounding'
p990
I5983
sS'deplaning'
p991
I4326
sS'seek'
p992
I4832
sS'874'
p993
I5606
sS'shorter'
p994
I4271
sS'read'
p995
I837
sS'resulting'
p996
I4110
sS'knitting'
p997
I4570
sS'alert'
p998
I1830
sS'viewing'
p999
I5015
sS'levels'
p1000
I4054
sS'euro'
p1001
I3442
sS'canned'
p1002
I4847
sS'person'
p1003
I597
sS'clearance'
p1004
I2932
sS'4hrs'
p1005
I4086
sS'soaked'
p1006
I4674
sS'cabins'
p1007
I3377
sS'aloha'
p1008
I3855
sS'23kg'
p1009
I2327
sS'eager'
p1010
I4826
sS'parents'
p1011
I1307
sS'location'
p1012
I2066
sS'sydney'
p1013
I3948
sS'input'
p1014
I3178
sS'surprised'
p1015
I1659
sS'niece'
p1016
I4554
sS'australia'
p1017
I1621
sS'emergency'
p1018
I1311
sS'format'
p1019
I5962
sS'couple'
p1020
I1164
sS'shitty'
p1021
I3009
sS'tsa'
p1022
I826
sS'formal'
p1023
I1314
sS'sorting'
p1024
I3032
sS'd'
p1025
I777
sS'communications'
p1026
I4978
sS'continue'
p1027
I572
sS'names'
p1028
I1629
sS'carryon'
p1029
I2537
sS'spring'
p1030
I4678
sS'b4'
p1031
I1864
sS'b6'
p1032
I4653
sS'palm'
p1033
I4047
sS'sight'
p1034
I2476
sS'curious'
p1035
I2213
sS'sprint'
p1036
I5458
sS'measurements'
p1037
I5491
sS't'
p1038
I1086
sS'be'
p1039
I36
sS'bf'
p1040
I4634
sS'ba'
p1041
I335
sS'bb'
p1042
I3304
sS'bc'
p1043
I1067
sS'bm'
p1044
I2923
sS'agreement'
p1045
I3903
sS'bk'
p1046
I5879
sS'bt'
p1047
I5430
sS'bw'
p1048
I5542
sS'bp'
p1049
I4909
sS'nowhere'
p1050
I2430
sS'bs'
p1051
I1999
sS'by'
p1052
I126
sS'zip'
p1053
I5699
sS'anything'
p1054
I238
sS'netflix'
p1055
I5078
sS'melbourne'
p1056
I1561
sS'deserves'
p1057
I2604
sS'repair'
p1058
I3058
sS'colorado'
p1059
I4908
sS'garbage'
p1060
I3452
sS'intl'
p1061
I2463
sS'into'
p1062
I145
sS'appropriate'
p1063
I1466
sS'jonny'
p1064
I4011
sS'0344'
p1065
I2351
sS'spending'
p1066
I1727
sS'submit'
p1067
I799
sS'custom'
p1068
I5397
sS'suit'
p1069
I2503
sS':'
p1070
I52
sS'opens'
p1071
I1800
sS'elsewhere'
p1072
I2898
sS'inches'
p1073
I2684
sS'poster'
p1074
I5758
sS'relaxed'
p1075
I4984
sS'assisting'
p1076
I3117
sS'mileageplus'
p1077
I1742
sS'atlantic'
p1078
I2276
sS'competition'
p1079
I2833
sS'line'
p1080
I363
sS'zika'
p1081
I4281
sS'ux'
p1082
I4726
sS'redeemed'
p1083
I4502
sS'up'
p1084
I89
sS'us'
p1085
I34
sS'ur'
p1086
I652
sS'um'
p1087
I3585
sS'un'
p1088
I4104
sS'customers'
p1089
I286
sS'verification'
p1090
I3551
sS'uk'
p1091
I668
sS'continuously'
p1092
I5876
sS'marseille'
p1093
I5602
sS'ua'
p1094
I1988
sS'alarm'
p1095
I5128
sS'yelled'
p1096
I4883
sS'supervisor'
p1097
I1118
sS'unsafe'
p1098
I5175
sS'sxm'
p1099
I5654
sS'chat'
p1100
I1341
sS'codes'
p1101
I2459
sS'fixing'
p1102
I2740
sS'invalid'
p1103
I3676
sS'definitely'
p1104
I624
sS'lufthansa'
p1105
I2421
sS'meals'
p1106
I1390
sS'martyna'
p1107
I2015
sS'ago'
p1108
I434
sS'lane'
p1109
I3789
sS'land'
p1110
I998
sS'mailing'
p1111
I4893
sS'age'
p1112
I2253
sS'walked'
p1113
I3368
sS'beverage'
p1114
I2450
sS'dot'
p1115
I4738
sS'fresh'
p1116
I2726
sS'having'
p1117
I255
sS'code'
p1118
I307
sS'partial'
p1119
I4424
sS'advisory'
p1120
I3444
sS'results'
p1121
I3250
sS'existing'
p1122
I2149
sS'enjoyable'
p1123
I1486
sS'legal'
p1124
I2834
sS'seemed'
p1125
I3144
sS'concerned'
p1126
I1243
sS'young'
p1127
I2326
sS'send'
p1128
I155
sS'dislike'
p1129
I1489
sS'iain'
p1130
I4463
sS'resources'
p1131
I5413
sS'tulsa'
p1132
I4759
sS'continues'
p1133
I2033
sS'continued'
p1134
I1393
sS'timely'
p1135
I2984
sS'magic'
p1136
I2846
sS'experiencing'
p1137
I893
sS'eve'
p1138
I3590
sS'anxious'
p1139
I3769
sS'race'
p1140
I3721
sS'rach'
p1141
I2737
sS'logistics'
p1142
I5492
sS'video'
p1143
I1276
sS'odd'
p1144
I1849
sS'traveltuesday'
p1145
I5227
sS'richmond'
p1146
I5075
sS'consistently'
p1147
I2937
sS'indian'
p1148
I5233
sS'turnaround'
p1149
I4656
sS'bird'
p1150
I1707
sS'led'
p1151
I4557
sS'leg'
p1152
I723
sS'delivering'
p1153
I3394
sS'let'
p1154
I111
sS'licence'
p1155
I3160
sS'lex'
p1156
I5767
sS'consideration'
p1157
I2825
sS'rdu'
p1158
I1744
sS'precheck'
p1159
I2074
sS'great'
p1160
I70
sS'engage'
p1161
I5802
sS'technical'
p1162
I1137
sS'involved'
p1163
I1632
sS'survey'
p1164
I2871
sS'opinion'
p1165
I3985
sS'makes'
p1166
I727
sS'explain'
p1167
I959
sS'thats'
p1168
I1438
sS'firefox'
p1169
I4238
sS'335'
p1170
I5039
sS'330'
p1171
I5660
sS'standing'
p1172
I1894
sS'confidence'
p1173
I3579
sS'certificate'
p1174
I2171
sS'illegal'
p1175
I5321
sS'next'
p1176
I186
sS'duplicate'
p1177
I4898
sS'doubt'
p1178
I1694
sS'transfarency'
p1179
I5253
sS'occurred'
p1180
I3313
sS'carrying'
p1181
I3064
sS'rubbish'
p1182
I2736
sS'baby'
p1183
I964
sS'gladly'
p1184
I1909
sS'pieces'
p1185
I2622
sS'charity'
p1186
I3075
sS'customer'
p1187
I82
sS'animals'
p1188
I3743
sS'this'
p1189
I26
sS'challenge'
p1190
I2486
sS'clients'
p1191
I3302
sS'process'
p1192
I534
sS'lock'
p1193
I3791
sS'purposes'
p1194
I3223
sS'promotional'
p1195
I5314
sS'high'
p1196
I905
sS'hongkong'
p1197
I5572
sS'delay'
p1198
I94
sS'reinstated'
p1199
I5628
sS'pair'
p1200
I3403
sS'animal'
p1201
I3608
sS'stand'
p1202
I1481
sS'waitlist'
p1203
I5701
sS'await'
p1204
I2509
sS'tier'
p1205
I1625
sS'efficiently'
p1206
I5524
sS'realized'
p1207
I3079
sS'boeing'
p1208
I1778
sS'22nd'
p1209
I4245
sS'counter'
p1210
I682
sS'robot'
p1211
I5260
sS'allow'
p1212
I661
sS'classy'
p1213
I3375
sS'volunteers'
p1214
I4400
sS'counted'
p1215
I5368
sS'houston'
p1216
I5217
sS'comms'
p1217
I4327
sS'move'
p1218
I864
sS'directv'
p1219
I5398
sS'perfect'
p1220
I1079
sS'chosen'
p1221
I3070
sS'meantime'
p1222
I1712
sS'degrees'
p1223
I3346
sS'instruments'
p1224
I4812
sS'2015'
p1225
I973
sS'hobby'
p1226
I5164
sS'2017'
p1227
I4151
sS'2016'
p1228
I599
sS'seatbelt'
p1229
I4760
sS'cust'
p1230
I1223
sS'docs'
p1231
I4910
sS'disrupted'
p1232
I2496
sS'transparent'
p1233
I5001
sS'seatac'
p1234
I3225
sS'traced'
p1235
I5196
sS'merge'
p1236
I3680
sS'delightful'
p1237
I4290
sS'truth'
p1238
I4065
sS'tracer'
p1239
I2341
sS'glasses'
p1240
I3345
sS'bump'
p1241
I2928
sS'books'
p1242
I3568
sS"'"
p1243
I100
sS'hilarious'
p1244
I3642
sS'shut'
p1245
I2522
sS'greedy'
p1246
I5613
sS'surely'
p1247
I1798
sS'luggages'
p1248
I3759
sS'log'
p1249
I1112
sS'scary'
p1250
I4336
sS'transferable'
p1251
I4941
sS'could'
p1252
I112
sS'length'
p1253
I2660
sS'removing'
p1254
I5048
sS'shucks'
p1255
I5338
sS'blown'
p1256
I5768
sS'455'
p1257
I2554
sS'fits'
p1258
I2344
sS'owner'
p1259
I5043
sS'start'
p1260
I431
sS'traveller'
p1261
I2399
sS'system'
p1262
I428
sS'travelled'
p1263
I2618
sS'painful'
p1264
I3513
sS'stars'
p1265
I4754
sS'45p'
p1266
I3390
sS'gotcha'
p1267
I3957
sS'unsubscribe'
p1268
I4201
sS'elite'
p1269
I1517
sS'colleagues'
p1270
I986
sS'bother'
p1271
I2355
sS'false'
p1272
I3108
sS'partnership'
p1273
I3809
sS'spelled'
p1274
I5734
sS'tonight'
p1275
I330
sS'vaca'
p1276
I4702
sS'clearly'
p1277
I1533
sS'documents'
p1278
I2207
sS'linda'
p1279
I1901
sS'korean'
p1280
I3771
sS';-)'
p1281
I1113
sS'worldwide'
p1282
I4150
sS'02'
p1283
I3217
sS'courtesy'
p1284
I1895
sS'01'
p1285
I2796
sS'**'
p1286
I5246
sS'device'
p1287
I1651
sS'segment'
p1288
I2682
sS'inappropriate'
p1289
I5717
sS'thanksgiving'
p1290
I4773
sS'face'
p1291
I1847
sS'fiasco'
p1292
I5249
sS'fact'
p1293
I1579
sS'bring'
p1294
I557
sS'bikes'
p1295
I5742
sS'manchester'
p1296
I1203
sS'postcode'
p1297
I1278
sS'rouge'
p1298
I4234
sS'ripoff'
p1299
I3841
sS'jax'
p1300
I3089
sS'should'
p1301
I151
sS'jan'
p1302
I3656
sS'jam'
p1303
I5438
sS'tape'
p1304
I3959
sS'riding'
p1305
I4574
sS'hope'
p1306
I130
sS'meant'
p1307
I1398
sS'flyerfriendly'
p1308
I2633
sS'insight'
p1309
I5041
sS'handle'
p1310
I1338
sS'means'
p1311
I914
sS'familiar'
p1312
I5064
sS'cranky'
p1313
I5558
sS'lucky'
p1314
I1626
sS'=)'
p1315
I3140
sS'dominican'
p1316
I5395
sS'aer'
p1317
I4635
sS'h'
p1318
I578
sS'taxes'
p1319
I2477
sS'stuff'
p1320
I1303
sS'!?!'
p1321
I4415
sS'ohio'
p1322
I5999
sS'24hrs'
p1323
I1779
sS'guessing'
p1324
I3757
sS'btw'
p1325
I1838
sS'frame'
p1326
I2598
sS'lazy'
p1327
I4868
sS'!!!!'
p1328
I943
sS'packed'
p1329
I2310
sS'lyon'
p1330
I4696
sS'!?!?'
p1331
I5981
sS'insulting'
p1332
I5343
sS'youll'
p1333
I3581
sS'email'
p1334
I125
sS'ends'
p1335
I2794
sS'877'
p1336
I2548
sS'configuration'
p1337
I5088
sS'restrictions'
p1338
I1818
sS'figured'
p1339
I2720
sS'tlv'
p1340
I4379
sS'ramp'
p1341
I3169
sS'etc'
p1342
I1309
sS'eta'
p1343
I2183
sS'etd'
p1344
I2578
sS'marta'
p1345
I4918
sS'ck'
p1346
I2358
sS'cj'
p1347
I5969
sS'adjusted'
p1348
I5924
sS'ch'
p1349
I5616
sS'co'
p1350
I1597
sS'medallion'
p1351
I1462
sS'cm'
p1352
I1914
sS'cl'
p1353
I5672
sS'cc'
p1354
I1392
sS'cb'
p1355
I4562
sS'ca'
p1356
I1810
sS'downgrade'
p1357
I3777
sS'cx'
p1358
I3275
sS'cs'
p1359
I751
sS'cr'
p1360
I1447
sS'allocated'
p1361
I2154
sS'oakland'
p1362
I3799
sS'ct'
p1363
I3340
sS'b747'
p1364
I5429
sS'crewmembers'
p1365
I2438
sS'waste'
p1366
I2027
sS'>'
p1367
I1420
sS'lgb'
p1368
I4237
sS'lga'
p1369
I677
sS'sales'
p1370
I1319
sS'puerto'
p1371
I3384
sS'atlanta'
p1372
I929
sS'lgw'
p1373
I1159
sS'spain'
p1374
I2405
sS'runway'
p1375
I968
sS'expiration'
p1376
I3640
sS'hahaha'
p1377
I5380
sS'maui'
p1378
I2943
sS'cvg'
p1379
I2914
sS'va'
p1380
I2320
sS've'
p1381
I5082
sS'vi'
p1382
I4004
sS'delaying'
p1383
I1474
sS'vm'
p1384
I2172
sS'vs'
p1385
I2242
sS'sits'
p1386
I5646
sS'waivers'
p1387
I5387
sS'35k'
p1388
I2661
sS'paulo'
p1389
I4350
sS'digging'
p1390
I5781
sS'35p'
p1391
I5982
sS'android'
p1392
I2812
sS'conflicting'
p1393
I3602
sS'ball'
p1394
I2572
sS'bali'
p1395
I2215
sS'phl'
p1396
I1060
sS'drink'
p1397
I979
sS'upon'
p1398
I1422
sS'thks'
p1399
I3540
sS'phx'
p1400
I1096
sS'expand'
p1401
I2933
sS'discounted'
p1402
I2755
sS'acknowledgement'
p1403
I3733
sS'indonesia'
p1404
I5833
sS'greatservice'
p1405
I3707
sS'355'
p1406
I4646
sS'spelt'
p1407
I5861
sS'350'
p1408
I4046
sS'audio'
p1409
I4758
sS'359'
p1410
I5003
sS'newest'
p1411
I4296
sS'less'
p1412
I692
sS'moments'
p1413
I3559
sS'rooms'
p1414
I4318
sS'web'
p1415
I712
sS'generous'
p1416
I4371
sS'kindness'
p1417
I2880
sS'wee'
p1418
I5609
sS'wed'
p1419
I2233
sS'realize'
p1420
I2201
sS'combine'
p1421
I4239
sS'wet'
p1422
I2888
sS'increased'
p1423
I2092
sS'government'
p1424
I3592
sS'dest'
p1425
I4956
sS'10pm'
p1426
I2897
sS'haul'
p1427
I1715
sS'five'
p1428
I1705
sS'desk'
p1429
I533
sS'password'
p1430
I1686
sS'chairs'
p1431
I4992
sS'a320'
p1432
I3017
sS'a321'
p1433
I3344
sS'become'
p1434
I1706
sS'replacement'
p1435
I2208
sS'12pm'
p1436
I5808
sS'choosing'
p1437
I1046
sS'springs'
p1438
I4985
sS'recognition'
p1439
I3213
sS'literally'
p1440
I1371
sS'avoid'
p1441
I812
sS'woohoo'
p1442
I2356
sS'admiralsclub'
p1443
I5095
sS'slower'
p1444
I5817
sS'schedule'
p1445
I574
sS'selecting'
p1446
I2926
sS'pressure'
p1447
I4617
sS'stage'
p1448
I3106
sS'sister'
p1449
I1530
sS'puts'
p1450
I4097
sS'software'
p1451
I4937
sS'alliance'
p1452
I2893
sS'letters'
p1453
I3547
sS'rectify'
p1454
I3594
sS'commitment'
p1455
I3917
sS'assess'
p1456
I4530
sS'spots'
p1457
I5725
sS'doing'
p1458
I530
sS'frustration'
p1459
I454
sS'yrs'
p1460
I2785
sS'function'
p1461
I4284
sS'delivery'
p1462
I930
sS'construction'
p1463
I5376
sS'count'
p1464
I1293
sS'places'
p1465
I1997
sS'official'
p1466
I1728
sS'smooth'
p1467
I856
sS'excitement'
p1468
I4746
sS'placed'
p1469
I1976
sS'problem'
p1470
I354
sS'qantas'
p1471
I1104
sS'bearing'
p1472
I4122
sS'int'
p1473
I2583
sS'recognize'
p1474
I2013
sS'ins'
p1475
I5315
sS'websites'
p1476
I4389
sS'ind'
p1477
I3016
sS'ing'
p1478
I4926
sS'compared'
p1479
I3884
sS'nonetheless'
p1480
I4430
sS'lately'
p1481
I1675
sS'details'
p1482
I134
sS'repeat'
p1483
I4030
sS'monday'
p1484
I871
sS'outlets'
p1485
I2169
sS'chance'
p1486
I507
sS'rule'
p1487
I2394
sS'write'
p1488
I1487
sS'jetstar'
p1489
I5337
sS'searched'
p1490
I5545
sS'ticketed'
p1491
I2615
sS'saver'
p1492
I5310
sS'saves'
p1493
I5912
sS'yikes'
p1494
I2613
sS'oldest'
p1495
I5885
sS'saved'
p1496
I1600
sS'25p'
p1497
I5350
sS'stinks'
p1498
I4625
sS'bike'
p1499
I2098
sS'slowest'
p1500
I5939
sS'diverted'
p1501
I1412
sS'worth'
p1502
I1115
sS'compassion'
p1503
I3828
sS'blanket'
p1504
I3461
sS'tickets'
p1505
I468
sS'ontime'
p1506
I2170
sS'cmh'
p1507
I3198
sS'notifying'
p1508
I4223
sS'red'
p1509
I1244
sS'cms'
p1510
I4919
sS'jamaica'
p1511
I3360
sS'29th'
p1512
I3971
sS'phones'
p1513
I2157
sS'7th'
p1514
I3434
sS'machines'
p1515
I4312
sS'decisions'
p1516
I3328
sS'+'
p1517
I322
sS'above'
p1518
I1140
sS'toll'
p1519
I3732
sS'neat'
p1520
I5794
sS'officially'
p1521
I2270
sS'told'
p1522
I309
sS'festive'
p1523
I4996
sS'bangkok'
p1524
I3164
sS'protection'
p1525
I2666
sS'celebration'
p1526
I3871
sS'kudos'
p1527
I471
sS'daughter'
p1528
I1035
sS'items'
p1529
I765
sS'employees'
p1530
I719
sS'smoke'
p1531
I5002
sS'akl'
p1532
I3336
sS'aka'
p1533
I4761
sS'secure'
p1534
I2938
sS'search'
p1535
I1440
sS'bru'
p1536
I4568
sS'brs'
p1537
I5140
sS'highly'
p1538
I2534
sS'bro'
p1539
I4644
sS'thursday'
p1540
I1456
sS'total'
p1541
I1150
sS'cana'
p1542
I4247
sS'negative'
p1543
I2855
sS'insult'
p1544
I4457
sS'separated'
p1545
I3300
sS'haha'
p1546
I1774
sS'award'
p1547
I1102
sS'aware'
p1548
I763
sS'backwards'
p1549
I5987
sS'word'
p1550
I1210
sS'work'
p1551
I218
sS'refusing'
p1552
I3208
sS'mechanic'
p1553
I5360
sS'crackers'
p1554
I5905
sS'indicated'
p1555
I5575
sS'recovery'
p1556
I3744
sS'carriers'
p1557
I2703
sS'provide'
p1558
I316
sS'verify'
p1559
I1719
sS'nuts'
p1560
I3068
sS'disappear'
p1561
I5704
sS'interview'
p1562
I4066
sS'disappoint'
p1563
I1274
sS'beach'
p1564
I2256
sS'pizza'
p1565
I3572
sS'lan'
p1566
I5718
sS'bday'
p1567
I2792
sS'after'
p1568
I163
sS'55p'
p1569
I4871
sS'customs'
p1570
I1799
sS'lax'
p1571
I364
sS'lay'
p1572
I4500
sS'law'
p1573
I2387
sS'lap'
p1574
I2306
sS'las'
p1575
I931
sS'......'
p1576
I2644
sS'appreciate'
p1577
I168
sS'greet'
p1578
I4827
sS'green'
p1579
I3163
sS'worst'
p1580
I351
sS'order'
p1581
I764
sS'office'
p1582
I633
sS'satisfied'
p1583
I2994
sS'awful'
p1584
I825
sS'japan'
p1585
I2865
sS'somewhere'
p1586
I1594
sS'denver'
p1587
I5604
sS'damages'
p1588
I5382
sS'then'
p1589
I200
sS'them'
p1590
I153
sS'affected'
p1591
I1249
sS'6224'
p1592
I5346
sS'safe'
p1593
I755
sS'break'
p1594
I1677
sS'band'
p1595
I5900
sS'heaven'
p1596
I5621
sS'shameful'
p1597
I3702
sS'they'
p1598
I65
sS'bank'
p1599
I1511
sS'gregorio'
p1600
I3161
sS'embarrassed'
p1601
I4949
sS'l'
p1602
I873
sS'rocks'
p1603
I2763
sS'7522'
p1604
I4816
sS'reasonable'
p1605
I2609
sS'flyers'
p1606
I2465
sS'!!!!!'
p1607
I2043
sS'logo'
p1608
I3860
sS'wga'
p1609
I5886
sS'network'
p1610
I2612
sS'hooked'
p1611
I5191
sS'medicine'
p1612
I5305
sS'forth'
p1613
I3806
sS'standard'
p1614
I1227
sS'mvp'
p1615
I2587
sS'recovering'
p1616
I5610
sS'created'
p1617
I2440
sS'+.'
p1618
I4599
sS'flawless'
p1619
I3954
sS'renew'
p1620
I5283
sS'reconnected'
p1621
I5853
sS'another'
p1622
I210
sS'disembark'
p1623
I5783
sS'electronic'
p1624
I2767
sS'approximately'
p1625
I4459
sS'rates'
p1626
I3182
sS'nbr'
p1627
I2281
sS'john'
p1628
I4447
sS'40th'
p1629
I5584
sS'dogs'
p1630
I3048
sS'happily'
p1631
I3307
sS'rejected'
p1632
I4895
sS'honolulu'
p1633
I3653
sS'wasted'
p1634
I1975
sS'toronto'
p1635
I1004
sS'scenes'
p1636
I3449
sS'seated'
p1637
I1803
sS'merci'
p1638
I5539
sS'ktn'
p1639
I2305
sS'powers'
p1640
I3475
sS'minus'
p1641
I4755
sS'failing'
p1642
I3338
sS'manner'
p1643
I2961
sS'contents'
p1644
I4053
sS'forced'
p1645
I1638
sS'genuine'
p1646
I4845
sS'convenient'
p1647
I2845
sS'luxury'
p1648
I4482
sS'explanation'
p1649
I1219
sS'circles'
p1650
I5027
sS'maiden'
p1651
I4596
sS'iceland'
p1652
I4801
sS'extending'
p1653
I4945
sS'germany'
p1654
I2918
sS'aunt'
p1655
I4592
sS'deeply'
p1656
I4677
sS'responded'
p1657
I1364
sS'reserve'
p1658
I1704
sS'anniversary'
p1659
I1981
sS'nephew'
p1660
I4437
sS'enjoyed'
p1661
I440
sS'guidance'
p1662
I5898
sS'hrs'
p1663
I504
sS'screening'
p1664
I3488
sS'do'
p1665
I42
sS'dl'
p1666
I1295
sS'dm'
p1667
I44
sS'dj'
p1668
I5507
sS'dd'
p1669
I2820
sS'de'
p1670
I1782
sS'dc'
p1671
I1308
sS'preferred'
p1672
I1196
sS'da'
p1673
I4793
sS'understaffed'
p1674
I4808
sS'dw'
p1675
I1128
sS'onboard'
p1676
I339
sS'dr'
p1677
I2373
sS'runs'
p1678
I4306
sS'pearson'
p1679
I3612
sS'irregularities'
p1680
I2784
sS'ems'
p1681
I4376
sS'complimenting'
p1682
I4819
sS'skymiles'
p1683
I807
sS'steal'
p1684
I4906
sS'depends'
p1685
I1256
sS'cattle'
p1686
I4162
sS'miserable'
p1687
I2643
sS'away'
p1688
I478
sS'gentleman'
p1689
I5202
sS'compensation'
p1690
I472
sS'jetting'
p1691
I5992
sS'unable'
p1692
I481
sS'cooperation'
p1693
I3955
sS'props'
p1694
I1917
sS'britishairways'
p1695
I2287
sS'wg'
p1696
I3087
sS'we'
p1697
I7
sS'terms'
p1698
I2332
sS'wk'
p1699
I4159
sS'wj'
p1700
I5280
sS'wi'
p1701
I1354
sS'wt'
p1702
I5031
sS'ws'
p1703
I5367
sS'admirals'
p1704
I1560
sS'travellers'
p1705
I3643
sS'00pm'
p1706
I3429
sS'packages'
p1707
I4331
sS'downgraded'
p1708
I3190
sS'received'
p1709
I328
sS'cos'
p1710
I3657
sS'cot'
p1711
I4704
sS'ill'
p1712
I1992
sS'coz'
p1713
I5148
sS'receives'
p1714
I4261
sS'requests'
p1715
I1881
sS'com'
p1716
I820
sS'con'
p1717
I3770
sS'tough'
p1718
I1198
sS'condescending'
p1719
I4650
sS'tons'
p1720
I4014
sS'speak'
p1721
I427
sS'gratitude'
p1722
I4569
sS'engines'
p1723
I4479
sS'flexible'
p1724
I1942
sS'families'
p1725
I1784
sS'beloved'
p1726
I5814
sS'relaxing'
p1727
I2235
sS'concerning'
p1728
I1938
sS'catering'
p1729
I1844
sS'lauderdale'
p1730
I2986
sS'applied'
p1731
I2292
sS'east'
p1732
I2321
sS'publicly'
p1733
I3080
sS'air'
p1734
I298
sS'aim'
p1735
I1862
sS'ain'
p1736
I3992
sS'applies'
p1737
I2969
sS'property'
p1738
I1048
sS'mistake'
p1739
I1230
sS'stink'
p1740
I5644
sS'cont'
p1741
I1741
sS'conf'
p1742
I739
sS'confirmed'
p1743
I942
sS'perform'
p1744
I5117
sS'incorrectly'
p1745
I4072
sS'lithium'
p1746
I5573
sS'arent'
p1747
I4770
sS'wheel'
p1748
I3310
sS'businessclass'
p1749
I4505
sS'nic'
p1750
I5378
sS'hang'
p1751
I1940
sS'rain'
p1752
I2267
sS'hand'
p1753
I545
sS',...'
p1754
I2859
sS'gatwick'
p1755
I722
sS'kept'
p1756
I1409
sS'thx'
p1757
I449
sS'congrats'
p1758
I1327
sS'tho'
p1759
I1785
sS'contact'
p1760
I128
sS'centres'
p1761
I5830
sS'the'
p1762
I5
sS'musical'
p1763
I4444
sS'quoted'
p1764
I3866
sS'photo'
p1765
I852
sS'edmonton'
p1766
I4079
sS'b787'
p1767
I5647
sS'thanks'
p1768
I39
sS'50th'
p1769
I5952
sS'adding'
p1770
I1472
sS'mix'
p1771
I3545
sS'27th'
p1772
I4358
sS'reuniting'
p1773
I5401
sS'shout'
p1774
I469
sS'spread'
p1775
I3484
sS'board'
p1776
I166
sS'fares'
p1777
I550
sS'worldtracer'
p1778
I2795
sS'rno'
p1779
I5502
sS'capt'
p1780
I2759
sS'lcy'
p1781
I2544
sS'boxes'
p1782
I4232
sS'cape'
p1783
I3155
sS'cooler'
p1784
I5740
sS'theyre'
p1785
I4838
sS'535'
p1786
I1566
sS'night'
p1787
I355
sS'security'
p1788
I470
sS'rebooking'
p1789
I432
sS'538'
p1790
I3835
sS'honored'
p1791
I2800
sS'sends'
p1792
I4029
sS'born'
p1793
I3686
sS'hassle'
p1794
I2505
sS'confusing'
p1795
I2542
sS'humor'
p1796
I3766
sS'phenomenal'
p1797
I4602
sS'comments'
p1798
I441
sS'asking'
p1799
I987
sS'denied'
p1800
I2001
sS'adorable'
p1801
I3831
sS'peek'
p1802
I2359
sS'pls'
p1803
I212
sS'marketing'
p1804
I2623
sS'plz'
p1805
I1664
sS'goingforgreat'
p1806
I5477
sS'phew'
p1807
I3863
sS'post'
p1808
I1056
sS'poss'
p1809
I5848
sS'theirs'
p1810
I5263
sS'months'
p1811
I696
sS'visa'
p1812
I1541
sS'wasting'
p1813
I3222
sS'pays'
p1814
I4481
sS'bound'
p1815
I1739
sS'guardia'
p1816
I5619
sS'available'
p1817
I231
sS'fight'
p1818
I1974
sS'accordingly'
p1819
I2254
sS'way'
p1820
I105
sS'was'
p1821
I48
sS'lowest'
p1822
I2543
sS'becoming'
p1823
I2975
sS'needles'
p1824
I4777
sS'elderly'
p1825
I3252
sS'true'
p1826
I1089
sS'reset'
p1827
I1873
sS'responding'
p1828
I1417
sS'maximum'
p1829
I2152
sS'emotional'
p1830
I4732
sS'inquiring'
p1831
I5889
sS'mtg'
p1832
I2988
sS'mails'
p1833
I4212
sS'promises'
p1834
I2920
sS'medication'
p1835
I3443
sS'promised'
p1836
I1443
sS'physical'
p1837
I5342
sS'dying'
p1838
I4852
sS'reality'
p1839
I4487
sS'website'
p1840
I211
sS'interested'
p1841
I2135
sS'holding'
p1842
I1526
sS'test'
p1843
I3723
sS'unwilling'
p1844
I5447
sS'brothers'
p1845
I5759
sS'welcome'
p1846
I217
sS'update'
p1847
I293
sS'alaskaair'
p1848
I5671
sS'cheated'
p1849
I5793
sS'concorde'
p1850
I3212
sS'together'
p1851
I487
sS'loyal'
p1852
I1068
sS'stick'
p1853
I2075
sS'concept'
p1854
I5953
sS'switched'
p1855
I2236
sS'dance'
p1856
I4979
sS'global'
p1857
I2414
sS'grateful'
p1858
I1765
sS'certainly'
p1859
I540
sS'yvr'
p1860
I1603
sS'compensate'
p1861
I2111
sS'dissatisfied'
p1862
I3665
sS'50lbs'
p1863
I5172
sS'southwest'
p1864
I841
sS'brown'
p1865
I5374
sS'3am'
p1866
I4215
sS'vegan'
p1867
I3493
sS'liability'
p1868
I4395
sS'vegas'
p1869
I734
sS'trouble'
p1870
I631
sS'blast'
p1871
I3934
sS'presented'
p1872
I5865
sS'turns'
p1873
I2473
sS'fragile'
p1874
I3708
sS'skyclub'
p1875
I2936
sS'p'
p1876
I1543
sS'soooo'
p1877
I4193
sS'guy'
p1878
I1298
sS'upper'
p1879
I2184
sS'regret'
p1880
I492
sS'bravo'
p1881
I3118
sS'discover'
p1882
I5054
sS'professionalism'
p1883
I3369
sS'cost'
p1884
I581
sS'20cm'
p1885
I5703
sS'keepclimbing'
p1886
I2176
sS'cargo'
p1887
I1972
sS'appear'
p1888
I1973
sS'assistance'
p1889
I170
sS'uniform'
p1890
I4418
sS'shared'
p1891
I2209
sS'appeal'
p1892
I5873
sS'supporting'
p1893
I3693
sS'unsure'
p1894
I3514
sS'downloaded'
p1895
I4152
sS'changi'
p1896
I5394
sS'appears'
p1897
I1724
sS'change'
p1898
I148
sS'sending'
p1899
I861
sS'incoming'
p1900
I1807
sS'usually'
p1901
I949
sS'pillow'
p1902
I4762
sS'montreal'
p1903
I2174
sS'regardless'
p1904
I2762
sS'extra'
p1905
I326
sS'marked'
p1906
I5324
sS'sincerely'
p1907
I885
sS'snowboard'
p1908
I5134
sS'embarrassing'
p1909
I3776
sS'rarely'
p1910
I4670
sS'market'
p1911
I3440
sS'terminal'
p1912
I547
sS'prove'
p1913
I4165
sS'unimpressed'
p1914
I3257
sS'live'
p1915
I956
sS'club'
p1916
I377
sS'clue'
p1917
I2733
sS'car'
p1918
I832
sS'cap'
p1919
I5484
sS'cat'
p1920
I2662
sS'can'
p1921
I24
sS'cam'
p1922
I5860
sS'cab'
p1923
I2863
sS'trans'
p1924
I5354
sS'heart'
p1925
I1375
sS'dedicated'
p1926
I3796
sS'smartclass'
p1927
I5834
sS'december'
p1928
I1623
sS'chip'
p1929
I5512
sS'heard'
p1930
I735
sS'clothing'
p1931
I4001
sS'occur'
p1932
I2815
sS'?^'
p1933
I4127
sS'productive'
p1934
I4914
sS',"'
p1935
I5036
sS'fuming'
p1936
I5388
sS'fortunately'
p1937
I5302
sS'trophies'
p1938
I5441
sS'lounge'
p1939
I350
sS'nonstop'
p1940
I1982
sS'economy'
p1941
I669
sS'??'
p1942
I413
sS'product'
p1943
I2472
sS'escalate'
p1944
I3421
sS'southern'
p1945
I5007
sS'disgusted'
p1946
I2383
sS'?.'
p1947
I5839
sS'?)'
p1948
I3539
sS'?#'
p1949
I4521
sS'?"'
p1950
I3239
sS'?!'
p1951
I488
sS'remember'
p1952
I1380
sS'whenever'
p1953
I1602
sS'customerexperience'
p1954
I2539
sS'typical'
p1955
I2546
sS'tagged'
p1956
I3584
sS'serving'
p1957
I2278
sS'indeed'
p1958
I1044
sS'displayed'
p1959
I3877
sS'expedited'
p1960
I4817
sS'ended'
p1961
I1837
sS'tablets'
p1962
I5596
sS'managers'
p1963
I2136
sS'cold'
p1964
I1832
sS'still'
p1965
I108
sS'birds'
p1966
I3192
sS'acknowledge'
p1967
I3194
sS'forms'
p1968
I2973
sS'window'
p1969
I912
sS'winnipeg'
p1970
I4750
sS'vueling'
p1971
I4666
sS'correspondence'
p1972
I3262
sS'non'
p1973
I834
sS'alist'
p1974
I5530
sS'half'
p1975
I771
sS'not'
p1976
I21
sS'nov'
p1977
I2094
sS'now'
p1978
I73
sS'discuss'
p1979
I1091
sS'nor'
p1980
I2244
sS'wont'
p1981
I1652
sS'lies'
p1982
I3026
sS'january'
p1983
I5309
sS'drop'
p1984
I486
sS'stockholm'
p1985
I4192
sS'entirely'
p1986
I4203
sS'yummy'
p1987
I3081
sS'em'
p1988
I2823
sS'el'
p1989
I3298
sS'en'
p1990
I1953
sS'fired'
p1991
I4964
sS'ek'
p1992
I4248
sS'ej'
p1993
I4503
sS'ed'
p1994
I4462
sS'eg'
p1995
I5929
sS'yeah'
p1996
I1126
sS'ec'
p1997
I2627
sS'challenges'
p1998
I2710
sS'ey'
p1999
I5330
sS'ex'
p2000
I3569
sS'year'
p2001
I343
sS'eu'
p2002
I2517
sS'et'
p2003
I2593
sS'happen'
p2004
I648
sS'avoided'
p2005
I5238
sS'ep'
p2006
I2866
sS'er'
p2007
I5035
sS'shown'
p2008
I2424
sS'opened'
p2009
I1996
sS'space'
p2010
I749
sS'furthermore'
p2011
I5582
sS'increase'
p2012
I2721
sS'receiving'
p2013
I1611
sS'shows'
p2014
I1015
sS'gbp'
p2015
I2853
sS'enroute'
p2016
I4456
sS'cars'
p2017
I5681
sS'cart'
p2018
I3710
sS'argh'
p2019
I5849
sS'card'
p2020
I404
sS'care'
p2021
I221
sS'selections'
p2022
I4766
sS'transition'
p2023
I5463
sS'fb'
p2024
I2139
sS'british'
p2025
I1378
sS'honest'
p2026
I2498
sS'promotion'
p2027
I2584
sS'support'
p2028
I511
sS'blind'
p2029
I5943
sS'initial'
p2030
I2895
sS'toulouse'
p2031
I4844
sS'xo'
p2032
I5648
sS'yourself'
p2033
I1363
sS'xx'
p2034
I3682
sS'directly'
p2035
I489
sS'impossible'
p2036
I1773
sS'message'
p2037
I246
sS'drove'
p2038
I4093
sS'tomorrow'
p2039
I245
sS'size'
p2040
I1187
sS'checked'
p2041
I269
sS'caught'
p2042
I2715
sS'carousel'
p2043
I1735
sS'friend'
p2044
I781
sS'courier'
p2045
I2014
sS'that'
p2046
I29
sS'pittsburgh'
p2047
I3525
sS'pnr'
p2048
I3038
sS'appreciated'
p2049
I827
sS'transferred'
p2050
I2071
sS'browser'
p2051
I927
sS'surname'
p2052
I2692
sS'angel'
p2053
I5960
sS'correction'
p2054
I4259
sS'premier'
p2055
I2382
sS'13th'
p2056
I4460
sS'breakfast'
p2057
I1557
sS'recover'
p2058
I3868
sS'offering'
p2059
I1479
sS'terrific'
p2060
I3736
sS'equipment'
p2061
I1283
sS'online'
p2062
I185
sS'begin'
p2063
I2018
sS'price'
p2064
I556
sS'america'
p2065
I5907
sS']'
p2066
I2769
sS'forever'
p2067
I1957
sS'31st'
p2068
I4291
sS'a380'
p2069
I1337
sS'mrs'
p2070
I3127
sS'sunset'
p2071
I2179
sS'pattern'
p2072
I5751
sS'professional'
p2073
I1301
sS'typically'
p2074
I2372
sS'filing'
p2075
I3224
sS'maint'
p2076
I4712
sS'discovered'
p2077
I4224
sS'crashing'
p2078
I4153
sS'upgrade'
p2079
I264
sS'title'
p2080
I3921
sS'only'
p2081
I157
sS'40pm'
p2082
I4729
sS'truly'
p2083
I479
sS'cannot'
p2084
I117
sS'celebrate'
p2085
I2226
sS'tube'
p2086
I4455
sS'leather'
p2087
I5906
sS'husband'
p2088
I1212
sS'concert'
p2089
I4840
sS'physically'
p2090
I5779
sS'actively'
p2091
I3536
sS'asleep'
p2092
I4577
sS'concern'
p2093
I1204
sS'staffed'
p2094
I4971
sS'ytz'
p2095
I5600
sS'?!?'
p2096
I1787
sS'thurs'
p2097
I3683
sS'3'
p2098
I123
sS'?!!'
p2099
I3984
sS'between'
p2100
I685
sS'notice'
p2101
I1273
sS'blame'
p2102
I2561
sS'hurts'
p2103
I4905
sS'article'
p2104
I2882
sS'fliers'
p2105
I4340
sS'voicemail'
p2106
I5030
sS'misspelled'
p2107
I5869
sS'wheels'
p2108
I1261
sS'comes'
p2109
I1346
sS'150'
p2110
I2002
sS'20am'
p2111
I5683
sS'learning'
p2112
I4692
sS'poorcustomerservice'
p2113
I4100
sS'cares'
p2114
I2991
sS'2pm'
p2115
I3598
sS'informed'
p2116
I1361
sS'cared'
p2117
I4643
sS'ik'
p2118
I1853
sS'foggy'
p2119
I5379
sS'these'
p2120
I395
sS'might'
p2121
I600
sS'accommodating'
p2122
I2670
sS'trick'
p2123
I3862
sS'transactions'
p2124
I5788
sS'alcoholic'
p2125
I5682
sS'canceled'
p2126
I644
sS'stewardess'
p2127
I3158
sS'return'
p2128
I402
sS'ship'
p2129
I3793
sS'worry'
p2130
I1469
sS"',"
p2131
I4927
sS'inquire'
p2132
I4360
sS'media'
p2133
I1216
sS'food'
p2134
I505
sS'followers'
p2135
I4796
sS'coworkers'
p2136
I4765
sS'document'
p2137
I2100
sS'investigated'
p2138
I4124
sS'bristol'
p2139
I2088
sS'closest'
p2140
I5904
sS'fruit'
p2141
I4320
sS'favorites'
p2142
I4891
sS'complained'
p2143
I3949
sS'charges'
p2144
I1221
sS'charger'
p2145
I4213
sS'severe'
p2146
I2850
sS'breeze'
p2147
I5552
sS'charged'
p2148
I797
sS'taxi'
p2149
I1732
sS'valuable'
p2150
I2401
sS'greetings'
p2151
I5882
sS'touch'
p2152
I609
sS'speed'
p2153
I2048
sS'death'
p2154
I3152
sS'euros'
p2155
I4209
sS'thinking'
p2156
I1689
sS'improvement'
p2157
I3364
sS'treatment'
p2158
I2008
sS'stranding'
p2159
I4436
sS'real'
p2160
I877
sS'spectacular'
p2161
I4069
sS'rules'
p2162
I1042
sS'psa'
p2163
I5901
sS'gonna'
p2164
I1147
sS'early'
p2165
I383
sS'listening'
p2166
I1842
sS'using'
p2167
I420
sS'ams'
p2168
I838
sS'lady'
p2169
I1414
sS'rear'
p2170
I5289
sS'fortune'
p2171
I5776
sS'pounds'
p2172
I3490
sS'miracle'
p2173
I3814
sS'benefit'
p2174
I2659
sS'35pm'
p2175
I5417
sS'occasions'
p2176
I4552
sS'overbooked'
p2177
I1813
sS'codeshare'
p2178
I2396
sS'duration'
p2179
I5072
sS'bless'
p2180
I3878
sS'recorded'
p2181
I4831
sS'business'
p2182
I346
sS'asap'
p2183
I463
sS'credits'
p2184
I2738
sS'hectic'
p2185
I5241
sS'exciting'
p2186
I1401
sS'throw'
p2187
I3438
sS'central'
p2188
I1285
sS'fell'
p2189
I1578
sS'greatly'
p2190
I2049
sS'sry'
p2191
I3370
sS'backup'
p2192
I4510
sS'2nite'
p2193
I5420
sS'youd'
p2194
I5732
sS'operator'
p2195
I4045
sS'your'
p2196
I12
sS'forwarded'
p2197
I1708
sS'prepare'
p2198
I4012
sS'area'
p2199
I1153
sS'qualifying'
p2200
I3511
sS'costumer'
p2201
I3698
sS'lon'
p2202
I4277
sS'lol'
p2203
I1069
sS'los'
p2204
I2417
sS'cats'
p2205
I4788
sS'low'
p2206
I1141
sS'lot'
p2207
I645
sS'allergic'
p2208
I5518
sS'delayed'
p2209
I99
sS'trying'
p2210
I223
sS'hire'
p2211
I2311
sS'fraud'
p2212
I4609
sS'strollers'
p2213
I4943
sS'600'
p2214
I2778
sS'aawesome'
p2215
I5777
sS'describe'
p2216
I4623
sS'moved'
p2217
I1169
sS'1200'
p2218
I4797
sS'scanned'
p2219
I3617
sS'moves'
p2220
I5285
sS'storage'
p2221
I4423
sS'intercontinental'
p2222
I5212
sS'valid'
p2223
I1280
sS'yow'
p2224
I4113
sS'you'
p2225
I4
sS'forcing'
p2226
I3741
sS'poor'
p2227
I529
sS'peak'
p2228
I3964
sS'pool'
p2229
I5488
sS'building'
p2230
I4425
sS'seatback'
p2231
I5632
sS'profits'
p2232
I5696
sS'overseas'
p2233
I3753
sS'pointing'
p2234
I4858
sS'month'
p2235
I665
sS'thoughtful'
p2236
I5513
sS'deadline'
p2237
I5250
sS'cincinnati'
p2238
I5061
sS'feelslikehome'
p2239
I3671
sS':...'
p2240
I2840
sS'dreadful'
p2241
I4272
sS'referring'
p2242
I1448
sS'auckland'
p2243
I2791
sS'4141'
p2244
I4683
sS'1pm'
p2245
I3888
sS'very'
p2246
I118
sS'horror'
p2247
I5878
sS'selfies'
p2248
I5462
sS'decide'
p2249
I2143
sS'-&'
p2250
I1205
sS'--'
p2251
I1021
sS'kiosks'
p2252
I2702
sS'cookies'
p2253
I1490
sS'instagram'
p2254
I3764
sS'witnessed'
p2255
I4936
sS'apologized'
p2256
I3459
sS'certificates'
p2257
I4196
sS'learned'
p2258
I2944
sS'loose'
p2259
I2998
sS'modify'
p2260
I5086
sS'answers'
p2261
I1453
sS'excess'
p2262
I2489
sS'depend'
p2263
I1870
sS'strong'
p2264
I3120
sS'sanfrancisco'
p2265
I5138
sS'ahead'
p2266
I1002
sS'vegetarian'
p2267
I2711
sS'amount'
p2268
I1272
sS'americanair'
p2269
I4015
sS'30kg'
p2270
I4735
sS'flyfi'
p2271
I2343
sS'family'
p2272
I418
sS'glitch'
p2273
I2529
sS'lagos'
p2274
I4160
sS'trained'
p2275
I3469
sS'attendant'
p2276
I532
sS'earliest'
p2277
I2903
sS'takes'
p2278
I1111
sS'answered'
p2279
I2052
sS'contains'
p2280
I2006
sS'almost'
p2281
I659
sS'taken'
p2282
I575
sS'injury'
p2283
I4278
sS'site'
p2284
I473
sS'excuse'
p2285
I1750
sS'broke'
p2286
I1771
sS'hurry'
p2287
I3371
sS'nine'
p2288
I5835
sS'history'
p2289
I2031
sS'747'
p2290
I1789
sS'pushed'
p2291
I2089
sS'legroom'
p2292
I1318
sS'passbook'
p2293
I2435
sS'stayed'
p2294
I3694
sS'fr'
p2295
I3139
sS'ft'
p2296
I2220
sS'tried'
p2297
I397
sS'rude'
p2298
I512
sS'communicating'
p2299
I4767
sS'fa'
p2300
I1768
sS'tries'
p2301
I4373
sS'fc'
p2302
I3946
sS'ff'
p2303
I1648
sS'fi'
p2304
I1064
sS'fl'
p2305
I2203
sS'a'
p2306
I9
sS'blush'
p2307
I3457
sS'roundtrip'
p2308
I3902
sS'fallen'
p2309
I5756
sS'documentation'
p2310
I3260
sS'overnight'
p2311
I1431
sS'anytime'
p2312
I1074
sS'renewing'
p2313
I4092
sS'dream'
p2314
I2374
sS'help'
p2315
I59
sS'airfare'
p2316
I3129
sS'sooo'
p2317
I4445
sS'soon'
p2318
I101
sS'held'
p2319
I1649
sS'theworst'
p2320
I5454
sS'committed'
p2321
I4896
sS'hell'
p2322
I1535
sS'solving'
p2323
I5335
sS'actually'
p2324
I588
sS'systems'
p2325
I1411
sS'friendliest'
p2326
I5184
sS'peanuts'
p2327
I2516
sS'cutie'
p2328
I4763
sS'goodmorning'
p2329
I5046
sS'evening'
p2330
I613
sS'cec'
p2331
I4262
sS'yo'
p2332
I1948
sS'ya'
p2333
I1635
sS'anticipated'
p2334
I5516
sS'foot'
p2335
I3564
sS'yr'
p2336
I1342
sS'desperately'
p2337
I5297
sS'bagage'
p2338
I5504
sS'fully'
p2339
I1683
sS'payed'
p2340
I4522
sS'ife'
p2341
I3404
sS'stopped'
p2342
I2251
sS'dulles'
p2343
I2889
sS'heavy'
p2344
I2607
sS'fees'
p2345
I743
sS'dia'
p2346
I3962
sS'beyond'
p2347
I1059
sS'event'
p2348
I1665
sS'travels'
p2349
I767
sS'since'
p2350
I334
sS'settle'
p2351
I5714
sS'safety'
p2352
I562
sS'7'
p2353
I348
sS'issue'
p2354
I244
sS'ass'
p2355
I2856
sS'puj'
p2356
I5121
sS'timeline'
p2357
I5295
sS'reason'
p2358
I549
sS'base'
p2359
I3362
sS'put'
p2360
I423
sS'southend'
p2361
I5221
sS'ash'
p2362
I3726
sS'firstclass'
p2363
I2289
sS'launch'
p2364
I4809
sS'terrible'
p2365
I577
sS'terribly'
p2366
I1631
sS'american'
p2367
I598
sS'expecting'
p2368
I2205
sS'2377'
p2369
I2219
sS'assign'
p2370
I1860
sS'unaccompanied'
p2371
I2714
sS'sisters'
p2372
I4448
sS'talked'
p2373
I2389
sS'miss'
p2374
I371
sS'airborne'
p2375
I2490
sS'station'
p2376
I2432
sS'mosaic'
p2377
I2603
sS'nigeria'
p2378
I5384
sS'scheme'
p2379
I5218
sS'selling'
p2380
I3472
sS'passed'
p2381
I901
sS'behind'
p2382
I1019
sS'ncl'
p2383
I3458
sS'off'
p2384
I205
sS'3284'
p2385
I1556
sS'center'
p2386
I1181
sS'kindly'
p2387
I1093
sS'stl'
p2388
I2010
sS'stn'
p2389
I4346
sS'grey'
p2390
I5080
sS'stt'
p2391
I5452
sS'stu'
p2392
I5103
sS'greg'
p2393
I3317
sS'recovered'
p2394
I5599
sS'kindle'
p2395
I2860
sS'toward'
p2396
I3165
sS'dtw'
p2397
I1267
sS'attendants'
p2398
I706
sS'wasnt'
p2399
I3558
sS'urgently'
p2400
I3247
sS'888'
p2401
I939
sS'randomly'
p2402
I3500
sS'juice'
p2403
I4279
sS'philly'
p2404
I1777
sS'curbside'
p2405
I4490
sS'outbound'
p2406
I1454
sS'trapped'
p2407
I3724
sS'scotland'
p2408
I3898
sS'lit'
p2409
I3931
sS'useless'
p2410
I1496
sS'towards'
p2411
I1786
sS'buf'
p2412
I3929
sS'quote'
p2413
I2485
sS'experiences'
p2414
I1636
sS'aires'
p2415
I4774
sS'kat'
p2416
I3600
sS'approved'
p2417
I2904
sS'mobile'
p2418
I705
sS'clear'
p2419
I863
sS'calling'
p2420
I779
sS'unreasonable'
p2421
I5818
sS'clean'
p2422
I2072
sS'velocity'
p2423
I2553
sS'latest'
p2424
I567
sS'shoutout'
p2425
I1332
sS'8253'
p2426
I3989
sS'666'
p2427
I5213
sS'660'
p2428
I5948
sS'northern'
p2429
I5894
sS'rudest'
p2430
I2849
sS'flights'
p2431
I88
sS'pretty'
p2432
I580
sS'circle'
p2433
I5399
sS'meanwhile'
p2434
I3631
sS'feels'
p2435
I2230
sS'during'
p2436
I555
sS'expedia'
p2437
I2648
sS'stored'
p2438
I4782
sS'maritha'
p2439
I1191
sS'x'
p2440
I845
sS'courteous'
p2441
I1642
sS'anticipate'
p2442
I4902
sS'throwing'
p2443
I4661
sS'prague'
p2444
I3351
sS'culture'
p2445
I5519
sS'close'
p2446
I880
sS'horrid'
p2447
I5870
sS'bride'
p2448
I5820
sS'pictures'
p2449
I2474
sS'wow'
p2450
I593
sS'pisa'
p2451
I4131
sS'woo'
p2452
I2993
sS'won'
p2453
I2907
sS'grandparents'
p2454
I5695
sS'probably'
p2455
I1143
sS'conditions'
p2456
I1124
sS'piss'
p2457
I4922
sS'missing'
p2458
I444
sS'both'
p2459
I424
sS'fiance'
p2460
I5155
sS'sensitive'
p2461
I4957
sS'forgotten'
p2462
I3512
sS'liked'
p2463
I2538
sS'882'
p2464
I2021
sS'battery'
p2465
I2983
sS'manners'
p2466
I5546
sS'whatever'
p2467
I2698
sS'likes'
p2468
I2974
sS'100ml'
p2469
I4422
sS'damn'
p2470
I1943
sS'maintenance'
p2471
I548
sS'collected'
p2472
I3858
sS'empty'
p2473
I1145
sS'2583'
p2474
I4289
sS'else'
p2475
I605
sS'lives'
p2476
I3859
sS'assigning'
p2477
I5643
sS'utmost'
p2478
I2838
sS'look'
p2479
I83
sS'while'
p2480
I367
sS'match'
p2481
I1353
sS'deplane'
p2482
I2535
sS'fleet'
p2483
I1012
sS'guide'
p2484
I2950
sS'loop'
p2485
I3501
sS'pack'
p2486
I2262
sS'cleaned'
p2487
I4091
sS'00p'
p2488
I5553
sS'ready'
p2489
I637
sS'albany'
p2490
I5284
sS'anymore'
p2491
I1255
sS'grant'
p2492
I5840
sS'checking'
p2493
I490
sS'grand'
p2494
I3200
sS'used'
p2495
I638
sS'temporary'
p2496
I2750
sS'bon'
p2497
I5954
sS'lie'
p2498
I2360
sS'bonus'
p2499
I1821
sS'layovers'
p2500
I4800
sS'overweight'
p2501
I2916
sS'001'
p2502
I5028
sS'000'
p2503
I1228
sS'uses'
p2504
I4178
sS'user'
p2505
I3276
sS'plugs'
p2506
I4954
sS'brussels'
p2507
I2945
sS'gsp'
p2508
I5824
sS'older'
p2509
I3333
sS'obviously'
p2510
I2279
sS'reclaim'
p2511
I4319
sS'consistency'
p2512
I4534
sS'clears'
p2513
I4745
sS'bog'
p2514
I5737
sS'appalled'
p2515
I3382
sS'767'
p2516
I2560
sS'reviewed'
p2517
I2259
sS'praying'
p2518
I4338
sS'tick'
p2519
I5074
sS'$'
p2520
I243
sS'guaranteed'
p2521
I1816
sS'guarantees'
p2522
I4558
sS'remaining'
p2523
I3254
sS'...'
p2524
I54
sS'march'
p2525
I1509
sS'lacking'
p2526
I4714
sS'evaluate'
p2527
I5414
sS'showing'
p2528
I493
sS'..?'
p2529
I4839
sS'game'
p2530
I993
sS'wings'
p2531
I2802
sS'submission'
p2532
I5700
sS'signal'
p2533
I4469
sS'popular'
p2534
I3324
sS'deicing'
p2535
I5949
sS'some'
p2536
I179
sS'urgent'
p2537
I2017
sS'experienced'
p2538
I796
sS'28th'
p2539
I3930
sS'delivered'
p2540
I1052
sS'qatar'
p2541
I4536
sS'kaj'
p2542
I5633
sS'minimal'
p2543
I5465
sS'sweating'
p2544
I5733
sS'measures'
p2545
I5106
sS'run'
p2546
I1131
sS'processing'
p2547
I2628
sS'step'
p2548
I1825
sS'abroad'
p2549
I3574
sS'shine'
p2550
I5136
sS'faith'
p2551
I3242
sS'wouldnt'
p2552
I3927
sS'tracing'
p2553
I2223
sS'idk'
p2554
I5156
sS'messaging'
p2555
I5179
sS'block'
p2556
I4388
sS'miracles'
p2557
I5235
sS'seeing'
p2558
I551
sS'dude'
p2559
I4147
sS'within'
p2560
I554
sS'nonsense'
p2561
I4578
sS'smells'
p2562
I4227
sS'.)'
p2563
I2577
sS'.,'
p2564
I2541
sS'.-'
p2565
I3833
sS'..'
p2566
I283
sS'./'
p2567
I3785
sS'.!'
p2568
I5655
sS'."'
p2569
I1158
sS'.#'
p2570
I2581
sS'.&'
p2571
I4810
sS".'"
p2572
I4402
sS'.?'
p2573
I3873
sS'himself'
p2574
I5169
sS'registered'
p2575
I2425
sS'films'
p2576
I5265
sS'properly'
p2577
I1927
sS'authority'
p2578
I3188
sS'newer'
p2579
I4595
sS'pwm'
p2580
I5772
sS'..."'
p2581
I4648
sS'...#'
p2582
I3018
sS'paolo'
p2583
I5836
sS'....'
p2584
I436
sS'similar'
p2585
I2847
sS'...?'
p2586
I3544
sS'uber'
p2587
I5958
sS'ordered'
p2588
I3489
sS'adults'
p2589
I3326
sS'amounts'
p2590
I5564
sS'nah'
p2591
I4667
sS'application'
p2592
I3460
sS'nap'
p2593
I3508
sS'electrical'
p2594
I5114
sS'transport'
p2595
I2338
sS'nat'
p2596
I5266
sS'department'
p2597
I688
sS'smiles'
p2598
I2716
sS'kansas'
p2599
I3996
sS'regulations'
p2600
I2951
sS'oneworld'
p2601
I2325
sS'reservation'
p2602
I297
sS'e'
p2603
I673
sS'required'
p2604
I1180
sS'resolving'
p2605
I3774
sS'svc'
p2606
I2547
sS'requires'
p2607
I3451
sS'gt'
p2608
I77
sS'cheerful'
p2609
I5287
sS'gf'
p2610
I3141
sS'ga'
p2611
I4524
sS'go'
p2612
I197
sS'tweeted'
p2613
I2590
sS'gk'
p2614
I1083
sS'suits'
p2615
I5291
sS'does'
p2616
I154
sS'suite'
p2617
I5811
sS'friendly'
p2618
I773
sS'rtn'
p2619
I5242
sS'facebook'
p2620
I1333
sS'telling'
p2621
I1106
sS'yourselves'
p2622
I3116
sS'positions'
p2623
I4488
sS'button'
p2624
I2368
sS'assignments'
p2625
I2589
sS'deleting'
p2626
I2545
sS'enforce'
p2627
I4947
sS'compensated'
p2628
I2830
sS'bogota'
p2629
I5149
sS'boots'
p2630
I4804
sS'soul'
p2631
I4853
sS'jump'
p2632
I3521
sS'picked'
p2633
I2004
sS'download'
p2634
I2271
sS'click'
p2635
I1105
sS'soup'
p2636
I5094
sS'marketed'
p2637
I5525
sS'valet'
p2638
I4645
sS'unhelpful'
p2639
I1553
sS';'
p2640
I92
sS'newyork'
p2641
I3969
sS'commercial'
p2642
I3251
sS'dca'
p2643
I776
sS'vacay'
p2644
I3870
sS'.......'
p2645
I4693
sS'products'
p2646
I3727
sS'nearest'
p2647
I4038
sS'win'
p2648
I1589
sS'manage'
p2649
I835
sS'addressed'
p2650
I2822
sS'stanstead'
p2651
I5665
sS'singing'
p2652
I4907
sS'cloud'
p2653
I4835
sS'bfs'
p2654
I5495
sS'crap'
p2655
I2064
sS'remains'
p2656
I3485
sS'camera'
p2657
I2626
sS'cheeky'
p2658
I3842
sS'formally'
p2659
I4263
sS'started'
p2660
I1334
sS'becomes'
p2661
I3778
sS'econ'
p2662
I3426
sS'about'
p2663
I79
sS'fuck'
p2664
I1892
sS'boards'
p2665
I2466
sS'announcing'
p2666
I5423
sS'ride'
p2667
I768
sS'crossed'
p2668
I1098
sS'meet'
p2669
I1429
sS'drops'
p2670
I4843
sS'control'
p2671
I720
sS'beijing'
p2672
I4257
sS'links'
p2673
I2934
sS'halloween'
p2674
I3240
sS'pulling'
p2675
I3670
sS'wonderful'
p2676
I531
sS'hesitate'
p2677
I1885
sS'arrangement'
p2678
I5262
sS'located'
p2679
I1433
sS'fare'
p2680
I409
sS'faro'
p2681
I3499
sS'belongings'
p2682
I2454
sS'spelling'
p2683
I3626
sS'screenshots'
p2684
I5215
sS'ibiza'
p2685
I3173
sS'deplaned'
p2686
I3185
sS'fastest'
p2687
I5574
sS'jnb'
p2688
I3646
sS'including'
p2689
I1084
sS'cruise'
p2690
I3097
sS'mentioned'
p2691
I1761
sS'him'
p2692
I649
sS'auto'
p2693
I2285
sS'hands'
p2694
I1507
sS'front'
p2695
I996
sS'refuel'
p2696
I5255
sS'mode'
p2697
I3867
sS'crossing'
p2698
I3663
sS'|'
p2699
I4393
sS'globe'
p2700
I5685
sS'700'
p2701
I3358
sS'measure'
p2702
I5219
sS'special'
p2703
I640
sS'entertainment'
p2704
I790
sS'rebook'
p2705
I643
sS'shambles'
p2706
I2808
sS'cause'
p2707
I928
sS'umbrella'
p2708
I5126
sS'eco'
p2709
I4876
sS'recommendations'
p2710
I5951
sS'completely'
p2711
I1062
sS'route'
p2712
I503
sS'ask'
p2713
I411
sS'keep'
p2714
I262
sS'keen'
p2715
I5190
sS'timed'
p2716
I4301
sS'designed'
p2717
I3987
sS'swapped'
p2718
I5520
sS'10kg'
p2719
I4300
sS'improving'
p2720
I4077
sS'pvr'
p2721
I5090
sS'quality'
p2722
I1952
sS'playlist'
p2723
I4972
sS'management'
p2724
I1547
sS'privacy'
p2725
I1041
sS'filthy'
p2726
I4494
sS'relations'
p2727
I323
sS'attach'
p2728
I5165
sS'attack'
p2729
I5056
sS'wrapped'
p2730
I5913
sS'perfectly'
p2731
I3620
sS'final'
p2732
I886
sS'exactly'
p2733
I1172
sS'apologise'
p2734
I1066
sS'lists'
p2735
I5754
sS'rsw'
p2736
I4064
sS'herself'
p2737
I5493
sS'updating'
p2738
I1963
sS'20kg'
p2739
I3623
sS'submitted'
p2740
I1352
sS'6th'
p2741
I3266
sS'providing'
p2742
I1488
sS'sq'
p2743
I2484
sS'bet'
p2744
I1865
sS'pvd'
p2745
I4856
sS'2014'
p2746
I4143
sS'lightly'
p2747
I5902
sS'need'
p2748
I81
sS'border'
p2749
I5044
sS'screw'
p2750
I2502
sS'able'
p2751
I142
sS'purchasing'
p2752
I2625
sS'instance'
p2753
I5178
sS'issuing'
p2754
I4628
sS'truck'
p2755
I4564
sS'coke'
p2756
I5570
sS'deposit'
p2757
I5874
sS'mileage'
p2758
I1241
sS'aww'
p2759
I1944
sS'expires'
p2760
I3807
sS'connected'
p2761
I1961
sS'awe'
p2762
I3745
sS'expired'
p2763
I2328
sS'url'
p2764
I5944
sS'pulled'
p2765
I2780
sS'indy'
p2766
I3972
sS'gesture'
p2767
I2410
sS'bordeaux'
p2768
I4671
sS'$$$'
p2769
I4655
sS'impression'
p2770
I1508
sS'anyway'
p2771
I1101
sS'parked'
p2772
I3095
sS'partners'
p2773
I2039
sS'based'
p2774
I980
sS'40am'
p2775
I5765
sS'tire'
p2776
I4571
sS'earned'
p2777
I2114
sS'('
p2778
I115
sS'winner'
p2779
I3978
sS'hopeful'
p2780
I4485
sS'fuel'
p2781
I1527
sS'overall'
p2782
I2814
sS'120'
p2783
I3515
sS'tbh'
p2784
I4932
sS'125'
p2785
I4321
sS'consecutive'
p2786
I5275
sS'years'
p2787
I718
sS'procedures'
p2788
I2964
sS'endless'
p2789
I4879
sS'processes'
p2790
I4862
sS'dps'
p2791
I4736
sS'course'
p2792
I855
sS'tuned'
p2793
I2492
sS'shd'
p2794
I5373
sS'processed'
p2795
I2055
sS'contain'
p2796
I4287
sS'tunes'
p2797
I4368
sS'grab'
p2798
I2899
sS'aamazing'
p2799
I4068
sS'spotted'
p2800
I4744
sS'humans'
p2801
I5418
sS'operates'
p2802
I4403
sS'computer'
p2803
I1450
sS'desperate'
p2804
I4303
sS'operated'
p2805
I1036
sS'luv'
p2806
I700
sS'nightmare'
p2807
I1503
sS'horribly'
p2808
I4976
sS'qf2'
p2809
I5937
sS'tend'
p2810
I4610
sS'written'
p2811
I2797
sS'correctly'
p2812
I1930
sS'horrible'
p2813
I784
sS'worstairline'
p2814
I3432
sS'neither'
p2815
I2422
sS'importance'
p2816
I5453
sS'kicking'
p2817
I4174
sS'merry'
p2818
I4675
sS'approval'
p2819
I5135
sS'precious'
p2820
I3376
sS'monitor'
p2821
I1748
sS'hits'
p2822
I5973
sS'limits'
p2823
I3517
sS'admin'
p2824
I5351
sS'admit'
p2825
I3953
sS'jersey'
p2826
I3125
sS'newplanesmell'
p2827
I5068
sS'tuesday'
p2828
I1640
sS'orig'
p2829
I5299
sS'quit'
p2830
I5273
sS'yay'
p2831
I1406
sS'addition'
p2832
I2752
sS'discrimination'
p2833
I5234
sS'thanked'
p2834
I5565
sS'slowly'
p2835
I5281
sS'treat'
p2836
I1011
sS'minimise'
p2837
I4231
sS'pic'
p2838
I1000
sS'releasing'
p2839
I4328
sS'policy'
p2840
I553
sS'hamburg'
p2841
I4499
sS'smoking'
p2842
I5959
sS'9865'
p2843
I5274
sS'harder'
p2844
I4074
sS'queuing'
p2845
I4039
sS'bucks'
p2846
I4333
sS'wks'
p2847
I3352
sS'notcool'
p2848
I3754
sS'generic'
p2849
I4000
sS'seoul'
p2850
I3846
sS'parts'
p2851
I3824
sS'party'
p2852
I1152
sS'effect'
p2853
I2742
sS'frequently'
p2854
I3944
sS'impeccable'
p2855
I5971
sS'//'
p2856
I1449
sS'mech'
p2857
I4058
sS'i'
p2858
I10
sS'variety'
p2859
I4006
sS'well'
p2860
I232
sS'restore'
p2861
I3993
sS'claiming'
p2862
I2952
sS'accurate'
p2863
I2448
sS'detail'
p2864
I2034
sS'mistakes'
p2865
I3635
sS'40'
p2866
I678
sS'advertised'
p2867
I3916
sS'headed'
p2868
I1368
sS'logged'
p2869
I2063
sS'nate'
p2870
I3979
sS'hpn'
p2871
I5464
sS'advertising'
p2872
I3795
sS'munich'
p2873
I2331
sS'livid'
p2874
I5127
sS'261'
p2875
I5809
sS'historic'
p2876
I5858
sS'5am'
p2877
I3124
sS'turbulence'
p2878
I3078
sS'loss'
p2879
I1893
sS'necessary'
p2880
I1536
sS'sizer'
p2881
I4672
sS'sizes'
p2882
I5203
sS'alternatively'
p2883
I3039
sS'ring'
p2884
I2079
sS'candy'
p2885
I5764
sS'sized'
p2886
I4529
sS'5hrs'
p2887
I2729
sS'payments'
p2888
I3849
sS'homesweethome'
p2889
I2782
sS'lose'
p2890
I1045
sS'page'
p2891
I653
sS'backlog'
p2892
I4032
sS'twitter'
p2893
I399
sS'home'
p2894
I173
sS'liking'
p2895
I3772
sS'?'
p2896
I14
sS'limitations'
p2897
I4994
sS'bestairline'
p2898
I4413
sS'reaching'
p2899
I1109
sS'prohibited'
p2900
I5985
sS'anchorage'
p2901
I4828
sS'recognized'
p2902
I2342
sS'cancelation'
p2903
I3705
sS'desktop'
p2904
I3541
sS'equally'
p2905
I4579
sS'celebrations'
p2906
I5589
sS'?????'
p2907
I3613
sS'previously'
p2908
I1736
sS'washington'
p2909
I2637
sS'couldnt'
p2910
I3687
sS'kong'
p2911
I2385
sS'pointless'
p2912
I4252
sS'additional'
p2913
I726
sS'whom'
p2914
I4016
sS'noticed'
p2915
I1915
sS'revised'
p2916
I5884
sS'north'
p2917
I2119
sS'gluten'
p2918
I3354
sS'hr'
p2919
I801
sS'hq'
p2920
I5669
sS'hv'
p2921
I4175
sS'hw'
p2922
I5629
sS'blaming'
p2923
I5006
sS'hk'
p2924
I3413
sS'hi'
p2925
I33
sS'gain'
p2926
I5033
sS'hm'
p2927
I5688
sS'ear'
p2928
I4715
sS'eat'
p2929
I2096
sS'he'
p2930
I379
sS'signed'
p2931
I2470
sS'carriage'
p2932
I3925
sS'dms'
p2933
I1386
sS'stories'
p2934
I3920
sS'pl'
p2935
I1687
sS'pumped'
p2936
I5895
sS'piece'
p2937
I1430
sS'display'
p2938
I3054
sS'mechanics'
p2939
I4783
sS'diligently'
p2940
I2857
sS'reservations'
p2941
I365
sS'penny'
p2942
I5716
sS'tb'
p2943
I1610
sS'beats'
p2944
I4886
sS'contest'
p2945
I3409
sS'onwards'
p2946
I5521
sS'star'
p2947
I2599
sS'justsaying'
p2948
I5686
sS'stay'
p2949
I732
sS'refreshments'
p2950
I3433
sS'webform'
p2951
I5591
sS'friends'
p2952
I857
sS'bcn'
p2953
I2515
sS'hnl'
p2954
I2493
sS'portion'
p2955
I3679
sS'frankfurt'
p2956
I1937
sS'todays'
p2957
I5934
sS'pardon'
p2958
I2719
sS'whoops'
p2959
I5146
sS'dynamic'
p2960
I5222
sS'6pm'
p2961
I3535
sS'captain'
p2962
I1148
sS'whose'
p2963
I3874
sS'calculate'
p2964
I3901
sS'aug'
p2965
I2124
sS'segments'
p2966
I2798
sS'disability'
p2967
I3982
sS'presents'
p2968
I4222
sS'aus'
p2969
I1716
sS'swap'
p2970
I2620
sS'sorry'
p2971
I41
sS'updated'
p2972
I742
sS'rescue'
p2973
I3588
sS'misunderstanding'
p2974
I3803
sS'updates'
p2975
I327
sS'affect'
p2976
I2525
sS'skills'
p2977
I3561
sS'companies'
p2978
I2636
sS'solution'
p2979
I1717
sS'convenience'
p2980
I4202
sS'heading'
p2981
I1081
sS'clothes'
p2982
I1192
sS'10k'
p2983
I5167
sS'force'
p2984
I3041
sS'10a'
p2985
I4527
sS'across'
p2986
I1426
sS'likely'
p2987
I1400
sS'10p'
p2988
I3730
sS'even'
p2989
I251
sS'preferences'
p2990
I4799
sS'integrity'
p2991
I5496
sS'panama'
p2992
I4266
sS'lights'
p2993
I3135
sS'new'
p2994
I159
sS'tips'
p2995
I2629
sS'ever'
p2996
I281
sS'med'
p2997
I5712
sS'mem'
p2998
I4431
sS'mel'
p2999
I2442
sS'never'
p3000
I192
sS'met'
p3001
I2345
sS'active'
p3002
I2836
sS'100'
p3003
I894
sS'mex'
p3004
I3417
sS'dry'
p3005
I4048
sS'spokane'
p3006
I5769
sS'sju'
p3007
I2948
sS'credit'
p3008
I429
sS'sjo'
p3009
I5389
sS'permit'
p3010
I5527
sS'sjc'
p3011
I2552
sS'suitable'
p3012
I3042
sS'30min'
p3013
I3422
sS'fantastic'
p3014
I632
sS'campaign'
p3015
I4824
sS'county'
p3016
I5623
sS'specifics'
p3017
I4206
sS'guests'
p3018
I1863
sS')...'
p3019
I5400
sS'counts'
p3020
I4197
sS'arms'
p3021
I3691
sS'cali'
p3022
I4359
sS'call'
p3023
I146
sS'calm'
p3024
I3098
sS'typo'
p3025
I3353
sS'recommend'
p3026
I847
sS'type'
p3027
I967
sS'tell'
p3028
I336
sS'posting'
p3029
I3938
sS'alitalia'
p3030
I4199
sS'disruption'
p3031
I1037
sS'berlin'
p3032
I1908
sS'warm'
p3033
I1525
sS'adult'
p3034
I2125
sS'room'
p3035
I741
sS'rights'
p3036
I1395
sS'movies'
p3037
I1809
sS'frequentflyer'
p3038
I4067
sS'exceptions'
p3039
I4752
sS'give'
p3040
I225
sS'honey'
p3041
I5267
sS'amazing'
p3042
I392
sS'neveragain'
p3043
I1751
sS'answer'
p3044
I499
sS'faulty'
p3045
I4166
sS'aboard'
p3046
I1418
sS'replacing'
p3047
I5532
sS'loyalty'
p3048
I663
sS'thankyou'
p3049
I1756
sS'purchase'
p3050
I583
sS'attempt'
p3051
I2563
sS'third'
p3052
I1434
sS'recieved'
p3053
I5352
sS'maintain'
p3054
I3531
sS'689'
p3055
I3456
sS'frequent'
p3056
I1085
sS'goodbye'
p3057
I3292
sS'operate'
p3058
I1362
sS'operations'
p3059
I1165
sS'deck'
p3060
I2350
sS'responsive'
p3061
I4513
sS'before'
p3062
I230
sS'rescheduled'
p3063
I2026
sS'personal'
p3064
I782
sS'soaking'
p3065
I5497
sS','
p3066
I6
sS'stopover'
p3067
I3560
sS'crew'
p3068
I160
sS'better'
p3069
I304
sS'differently'
p3070
I3099
sS'weeks'
p3071
I535
sS'pleasurable'
p3072
I5487
sS'combination'
p3073
I4973
sS'mxp'
p3074
I4682
sS'airfrance'
p3075
I2839
sS'went'
p3076
I689
sS'meal'
p3077
I736
sS'mean'
p3078
I586
sS'interruption'
p3079
I5735
sS'24h'
p3080
I4019
sS'indianapolis'
p3081
I5118
sS'forgot'
p3082
I1344
sS'restricted'
p3083
I3599
sS'00am'
p3084
I3291
sS'content'
p3085
I3474
sS'debit'
p3086
I3214
sS'surprise'
p3087
I1288
sS'turning'
p3088
I3014
sS'linear'
p3089
I4885
sS'resume'
p3090
I4604
sS'fave'
p3091
I4017
sS'247'
p3092
I3386
sS'241'
p3093
I4351
sS'struggle'
p3094
I5334
sS'aisle'
p3095
I1473
sS'logging'
p3096
I2713
sS'starts'
p3097
I2299
sS'messages'
p3098
I1365
sS'steward'
p3099
I4563
sS'arrived'
p3100
I525
sS'messaged'
p3101
I4255
sS'loud'
p3102
I3685
sS'006'
p3103
I5109
sS'features'
p3104
I4647
sS'hook'
p3105
I3495
sS'1a'
p3106
I4999
sS'indicate'
p3107
I4963
sS'girls'
p3108
I3066
sS'2am'
p3109
I3947
sS'somewhat'
p3110
I5774
sS'begins'
p3111
I3231
sS'distance'
p3112
I3749
sS'anxiety'
p3113
I4311
sS'enabled'
p3114
I2678
sS'matter'
p3115
I1065
sS'street'
p3116
I5018
sS'silly'
p3117
I3170
sS'spoiled'
p3118
I4337
sS'mini'
p3119
I3063
sS'sees'
p3120
I4749
sS'modern'
p3121
I4742
sS'mind'
p3122
I730
sS'mine'
p3123
I1397
sS'seen'
p3124
I1007
sS'seem'
p3125
I904
sS'mins'
p3126
I528
sS'mint'
p3127
I2228
sS'tells'
p3128
I2150
sS'avios'
p3129
I948
sS'phoned'
p3130
I4443
sS'marrakech'
p3131
I5638
sS'usairways'
p3132
I2909
sS'regular'
p3133
I1673
sS'zealand'
p3134
I4241
sS'reimbursement'
p3135
I1688
sS'7am'
p3136
I2122
sS'dom'
p3137
I4966
sS'dob'
p3138
I2722
sS'doc'
p3139
I5444
sS'medical'
p3140
I1656
sS'm'
p3141
I941
sS'dog'
p3142
I1598
sS'overbook'
p3143
I4264
sS'??????'
p3144
I5880
sS'competitors'
p3145
I5141
sS'points'
p3146
I501
sS'consumer'
p3147
I4313
sS'annoyed'
p3148
I1831
sS'urgency'
p3149
I4509
sS'ending'
p3150
I3067
sS'cake'
p3151
I3092
sS'attempts'
p3152
I3804
sS'probs'
p3153
I3781
sS'customerservicefail'
p3154
I4518
sS'northeast'
p3155
I5554
sS'weekends'
p3156
I5133
sS'akansha'
p3157
I4556
sS'folks'
p3158
I1217
sS'folder'
p3159
I3775
sS'wearing'
p3160
I2959
sS'stop'
p3161
I641
sS'coast'
p3162
I2144
sS'8538'
p3163
I3133
sS'earn'
p3164
I1442
sS'bar'
p3165
I2225
sS'17'
p3166
I1286
sS'bay'
p3167
I3022
sS'bag'
p3168
I95
sS'bad'
p3169
I380
sS'counters'
p3170
I2905
sS'ears'
p3171
I2330
sS'decides'
p3172
I5750
sS'reference'
p3173
I233
sS'rockstar'
p3174
I4991
sS'testing'
p3175
I4930
sS'decided'
p3176
I1958
sS'interruptions'
p3177
I5827
sS'subject'
p3178
I1373
sS'brazil'
p3179
I2992
sS'03'
p3180
I3883
sS'00'
p3181
I829
sS'said'
p3182
I408
sS'06'
p3183
I2787
sS'07'
p3184
I2665
sS'04'
p3185
I3837
sS'05'
p3186
I1899
sS'08'
p3187
I2471
sS'09'
p3188
I2494
sS'merrychristmas'
p3189
I3893
sS'pets'
p3190
I3111
sS'oma'
p3191
I5047
sS'omg'
p3192
I2574
sS'boise'
p3193
I5256
sS'upfront'
p3194
I3159
sS'cousin'
p3195
I4035
sS'picking'
p3196
I2861
sS'suggested'
p3197
I3618
sS'against'
p3198
I1935
sS'unk'
p3199
I1
sS'exemplary'
p3200
I5012
sS'appeared'
p3201
I5245
sS'height'
p3202
I4167
sS'offerings'
p3203
I4508
sS'loaded'
p3204
I2212
sS'asks'
p3205
I3734
sS'basis'
p3206
I2718
sS'three'
p3207
I830
sS'tiny'
p3208
I3467
sS'recognised'
p3209
I5381
sS'interest'
p3210
I2770
sS'basic'
p3211
I2911
sS'entered'
p3212
I2565
sS'lovely'
p3213
I584
sS'threw'
p3214
I5251
sS'mco'
p3215
I1070
sS'mci'
p3216
I2821
sS'mce'
p3217
I5593
sS'sunshine'
p3218
I3296
sS'personally'
p3219
I3012
sS'aviation'
p3220
I2508
sS'160'
p3221
I5070
sS'exception'
p3222
I3191
sS'near'
p3223
I1554
sS'suppose'
p3224
I2245
sS'itinerary'
p3225
I815
sS'gla'
p3226
I2624
sS'balance'
p3227
I2776
sS'slc'
p3228
I1567
sS'seven'
p3229
I3943
sS'mexico'
p3230
I1427
sS'is'
p3231
I13
sS'it'
p3232
I23
sS'shame'
p3233
I1075
sS'cant'
p3234
I831
sS'im'
p3235
I667
sS'il'
p3236
I4851
sS'in'
p3237
I20
sS'seattle'
p3238
I1095
sS'ie'
p3239
I3203
sS'id'
p3240
I703
sS'canx'
p3241
I5679
sS'if'
p3242
I43
sS'bottles'
p3243
I4025
sS'make'
p3244
I127
sS'potentially'
p3245
I5687
sS'unfortunate'
p3246
I1604
sS'entitled'
p3247
I1993
sS'meets'
p3248
I4021
sS'sacramento'
p3249
I4606
sS'stressed'
p3250
I3562
sS'kit'
p3251
I3937
sS'delight'
p3252
I3945
sS'jealous'
p3253
I2573
sS'opportunity'
p3254
I1504
sS'thoughts'
p3255
I2024
sS'kid'
p3256
I2449
sS'programs'
p3257
I4449
sS'settled'
p3258
I4764
sS'youre'
p3259
I1696
sS'rome'
p3260
I1189
sS'claims'
p3261
I1767
sS'800'
p3262
I290
sS'yours'
p3263
I1608
sS'left'
p3264
I338
sS'protocol'
p3265
I5306
sS'just'
p3266
I71
sS'yea'
p3267
I3661
sS'unfair'
p3268
I3323
sS'yeg'
p3269
I2781
sS'crewmember'
p3270
I1743
sS'assigned'
p3271
I1234
sS'bandwidth'
p3272
I4836
sS'identify'
p3273
I5356
sS'human'
p3274
I1977
sS'yep'
p3275
I1945
sS'yes'
p3276
I229
sS'yet'
p3277
I299
sS'belfast'
p3278
I1723
sS'character'
p3279
I3603
sS'save'
p3280
I1316
sS'opt'
p3281
I4803
sS'ops'
p3282
I2828
sS'tmrw'
p3283
I2582
sS'supervisors'
p3284
I4108
sS'3pm'
p3285
I3722
sS'background'
p3286
I4573
sS'dreams'
p3287
I4073
sS'visible'
p3288
I4911
sS'manual'
p3289
I5743
sS'unnecessary'
p3290
I4130
sS'arrivals'
p3291
I2844
sS'deal'
p3292
I813
sS'somehow'
p3293
I2384
sS'dead'
p3294
I3255
sS'invoice'
p3295
I3714
sS'dear'
p3296
I702
sS'separately'
p3297
I2772
sS'tracked'
p3298
I4935
sS'notification'
p3299
I1585
sS'track'
p3300
I884
sS'tracker'
p3301
I924
sS'locators'
p3302
I5666
sS'unorganized'
p3303
I5702
sS'super'
p3304
I795
sS'?!?!'
p3305
I2803
sS'yelling'
p3306
I4854
sS'valentines'
p3307
I5624
sS'essential'
p3308
I2506
sS'magazine'
p3309
I2600
sS'afternoon'
p3310
I1018
sS'islands'
p3311
I5658
sS'automatically'
p3312
I1538
sS'whats'
p3313
I1563
sS'lied'
p3314
I2504
sS'selfie'
p3315
I2436
sS'down'
p3316
I337
sS'locator'
p3317
I313
sS'jenn'
p3318
I4194
sS'cardiff'
p3319
I5883
sS'amsterdam'
p3320
I721
sS'amazingly'
p3321
I4818
sS'flying'
p3322
I103
sS'form'
p3323
I521
sS'landing'
p3324
I780
sS'failure'
p3325
I1850
sS'222'
p3326
I2148
sS'221'
p3327
I1252
sS'fort'
p3328
I2799
sS'refunds'
p3329
I1485
sS'streaming'
p3330
I3282
sS'attached'
p3331
I2319
sS'20pm'
p3332
I4489
sS'tucson'
p3333
I5579
sS'sapphire'
p3334
I5426
sS'delete'
p3335
I1156
sS'originating'
p3336
I5533
sS'reevaluate'
p3337
I4052
sS'sticks'
p3338
I5057
sS'classic'
p3339
I3153
sS'covers'
p3340
I5896
sS'sale'
p3341
I839
sS'awhile'
p3342
I4593
sS'shit'
p3343
I1482
sS'alerts'
p3344
I2862
sS'generally'
p3345
I2386
sS'handed'
p3346
I2380
sS'digital'
p3347
I4555
sS'2500'
p3348
I5514
sS'felt'
p3349
I2138
sS'journey'
p3350
I803
sS'authorities'
p3351
I3126
sS'transfers'
p3352
I4008
sS'weekend'
p3353
I476
sS'died'
p3354
I4576
sS'happening'
p3355
I1029
sS'apology'
p3356
I802
sS'assume'
p3357
I2367
sS'blushing'
p3358
I5087
sS'daily'
p3359
I2065
sS'jacket'
p3360
I3166
sS'rough'
p3361
I1671
sS'reroute'
p3362
I3848
sS'restored'
p3363
I4850
sS'managed'
p3364
I1026
sS'skip'
p3365
I3615
sS'skis'
p3366
I4784
sS'manager'
p3367
I876
sS'mile'
p3368
I2109
sS'milk'
p3369
I3739
sS'21st'
p3370
I3176
sS'praises'
p3371
I3083
sS'father'
p3372
I2313
sS'disgusting'
p3373
I2005
sS'countdown'
p3374
I4020
sS'0'
p3375
I1377
sS'finally'
p3376
I604
sS'unpleasant'
p3377
I3077
sS'earlybird'
p3378
I2569
sS'shoot'
p3379
I2708
sS'advised'
p3380
I1197
sS'ma'
p3381
I3735
sS'jhb'
p3382
I4897
sS'did'
p3383
I107
sS'die'
p3384
I4719
sS'dig'
p3385
I3728
sS'accidentally'
p3386
I2987
sS'specials'
p3387
I4345
sS'item'
p3388
I758
sS'round'
p3389
I1245
sS'unexpected'
p3390
I2218
sS'dealing'
p3391
I1861
sS'tnx'
p3392
I5065
sS'eating'
p3393
I4026
sS'adds'
p3394
I5819
sS'reunite'
p3395
I1157
sS'international'
p3396
I642
sS'filled'
p3397
I1618
sS'transportation'
p3398
I2967
sS'install'
p3399
I3567
sS'french'
p3400
I2826
sS'congestion'
p3401
I4285
sS'wait'
p3402
I190
sS'box'
p3403
I1612
sS'boy'
p3404
I2723
sS'canadian'
p3405
I3305
sS'shift'
p3406
I3573
sS'bos'
p3407
I932
sS'bom'
p3408
I5569
sS'suggestion'
p3409
I1163
sS'boo'
p3410
I2924
sS'priceless'
p3411
I5991
sS'genuinely'
p3412
I4794
sS'easyjet'
p3413
I778
sS'useful'
p3414
I2701
sS'flexibility'
p3415
I1876
sS'hotels'
p3416
I2406
sS'everybody'
p3417
I3407
sS'perk'
p3418
I3935
sS'visit'
p3419
I887
sS'france'
p3420
I4986
sS'connector'
p3421
I4933
sS'peru'
p3422
I5022
sS'ahhh'
p3423
I5348
sS'thru'
p3424
I1166
sS'checkout'
p3425
I5014
sS'itineraries'
p3426
I4115
sS'sharing'
p3427
I357
sS'acceptable'
p3428
I1593
sS'ooh'
p3429
I4417
sS'effort'
p3430
I1757
sS'fly'
p3431
I147
sS'tokyo'
p3432
I2283
sS'avoiding'
p3433
I4590
sS'flt'
p3434
I450
sS'reviews'
p3435
I2779
sS'wallet'
p3436
I1960
sS'fll'
p3437
I1459
sS'9th'
p3438
I3936
sS'growing'
p3439
I4878
sS'making'
p3440
I419
sS'arrive'
p3441
I496
sS'claim'
p3442
I284
sS'crazy'
p3443
I1460
sS'confused'
p3444
I1513
sS'agent'
p3445
I202
sS'pink'
p3446
I4214
sS'oslo'
p3447
I4200
sS'till'
p3448
I1185
sS'sunday'
p3449
I3815
sS'pure'
p3450
I5077
sS'nyc'
p3451
I707
sS'nye'
p3452
I5139
sS'map'
p3453
I2105
sS'staying'
p3454
I2495
sS'mat'
p3455
I5004
sS'140'
p3456
I3233
sS'sna'
p3457
I3122
sS'may'
p3458
I214
sS'max'
p3459
I2388
sS'accessory'
p3460
I4869
sS'membership'
p3461
I1518
sS'mad'
p3462
I1666
sS'mag'
p3463
I5433
sS'!!!'
p3464
I359
sS'guys'
p3465
I273
sS'grow'
p3466
I5841
sS'man'
p3467
I1023
sS'maybe'
p3468
I615
sS'q'
p3469
I2189
sS'switch'
p3470
I1213
sS'silence'
p3471
I4187
sS'tall'
p3472
I3672
sS'talk'
p3473
I808
sS'cute'
p3474
I2240
sS'shoes'
p3475
I3131
sS'canberra'
p3476
I4615
sS'clubhouse'
p3477
I3662
sS'wishing'
p3478
I2121
sS'pitch'
p3479
I4938
sS'equip'
p3480
I5506
sS'group'
p3481
I991
sS'thank'
p3482
I76
sS'interesting'
p3483
I2054
sS'thanx'
p3484
I3914
sS'30mins'
p3485
I3325
sS'mail'
p3486
I909
sS'main'
p3487
I1209
sS'texas'
p3488
I2519
sS'emailed'
p3489
I1250
sS'views'
p3490
I2753
sS'sooner'
p3491
I1946
sS'lunch'
p3492
I2200
sS'safari'
p3493
I3090
sS'bullshit'
p3494
I3244
sS'flexi'
p3495
I4701
sS'rock'
p3496
I1548
sS'zurich'
p3497
I3669
sS'signage'
p3498
I5984
sS'girl'
p3499
I1880
sS'requesting'
p3500
I2601
sS'canada'
p3501
I1226
sS'living'
p3502
I3197
sS'3rd'
p3503
I1253
sS'miles'
p3504
I315
sS'dutch'
p3505
I3359
sS'entitlements'
p3506
I1016
sS'correct'
p3507
I625
sS'charlotte'
p3508
I5483
sS'earlier'
p3509
I457
sS'california'
p3510
I2884
sS'orf'
p3511
I5049
sS'ord'
p3512
I634
sS'advance'
p3513
I679
sS'language'
p3514
I3415
sS'standby'
p3515
I746
sS'headphones'
p3516
I2510
sS'16th'
p3517
I4426
sS'thing'
p3518
I622
sS'think'
p3519
I353
sS'waited'
p3520
I1317
sS'first'
p3521
I171
sS'cheese'
p3522
I2690
sS'long'
p3523
I242
sS'suspended'
p3524
I5345
sS'carry'
p3525
I451
sS'sounds'
p3526
I464
sS'accountability'
p3527
I5887
sS'execplat'
p3528
I5029
sS'little'
p3529
I435
sS'ioanna'
p3530
I4621
sS'slept'
p3531
I4084
sS'inflight'
p3532
I766
sS'anyone'
p3533
I621
sS'1h'
p3534
I4434
sS'1k'
p3535
I2393
sS'speaking'
p3536
I1852
sS'eyes'
p3537
I2805
sS'inefficient'
p3538
I4177
sS'moscow'
p3539
I4282
sS'heritage'
p3540
I5322
sS'hartford'
p3541
I5473
sS'11'
p3542
I647
sS'10'
p3543
I319
sS'13'
p3544
I976
sS'12'
p3545
I518
sS'15'
p3546
I446
sS'14'
p3547
I944
sS'sailing'
p3548
I5357
sS'16'
p3549
I891
sS'19'
p3550
I1514
sS'18'
p3551
I1072
sS'gotta'
p3552
I1520
sS'protected'
p3553
I3951
sS'were'
p3554
I121
sS'20p'
p3555
I4662
sS'wknd'
p3556
I5657
sS'dash'
p3557
I5611
sS'occupied'
p3558
I4694
sS'warsaw'
p3559
I5411
sS'efficient'
p3560
I2192
sS'answering'
p3561
I1966
sS'upgrading'
p3562
I2016
sS'shocked'
p3563
I2942
sS'potential'
p3564
I2955
sS'happynewyear'
p3565
I5434
sS'interior'
p3566
I4713
sS'performance'
p3567
I2258
sS'switching'
p3568
I2137
sS'channel'
p3569
I2095
sS'200'
p3570
I961
sS'pain'
p3571
I2481
sS'trace'
p3572
I2621
sS'normal'
p3573
I982
sS'209'
p3574
I5010
sS'paid'
p3575
I443
sS'beta'
p3576
I4981
sS'complaints'
p3577
I1284
sS'especially'
p3578
I970
sS'surprising'
p3579
I5243
sS'40mins'
p3580
I5386
sS'shop'
p3581
I3446
sS'shot'
p3582
I1201
sS'.^'
p3583
I729
sS'show'
p3584
I425
sS'delta'
p3585
I694
sS'representatives'
p3586
I2985
sS'elevate'
p3587
I4684
sS'corner'
p3588
I4002
sS'storms'
p3589
I2910
sS'enough'
p3590
I568
sS'black'
p3591
I2640
sS'custserv'
p3592
I3604
sS'info'
p3593
I183
sS'get'
p3594
I53
sS'hostage'
p3595
I5626
sS'reps'
p3596
I1643
sS'nearly'
p3597
I1359
sS'gee'
p3598
I5185
sS'gem'
p3599
I4377
sS'morning'
p3600
I226
sS'miler'
p3601
I4523
sS'stupid'
p3602
I2412
sS'communicated'
p3603
I4944
sS'honesty'
p3604
I5548
sS'seat'
p3605
I136
sS'cocktails'
p3606
I5897
sS'calendar'
p3607
I2333
sS'wonder'
p3608
I1573
sS'cleaning'
p3609
I3107
sS'forecast'
p3610
I5517
sS'pump'
p3611
I5195
sS'reading'
p3612
I2312
sS'checks'
p3613
I2963
sS'oversized'
p3614
I4717
sS'affordable'
p3615
I5390
sS'august'
p3616
I4156
sS'parent'
p3617
I3699
sS'jt'
p3618
I5920
sS'jp'
p3619
I4478
sS'jr'
p3620
I3091
sS'js'
p3621
I1405
sS'jl'
p3622
I4549
sS'jh'
p3623
I1107
sS'jj'
p3624
I2697
sS'jd'
p3625
I3527
sS'killing'
p3626
I2580
sS'ja'
p3627
I2297
sS'coupons'
p3628
I2680
sS'jfk'
p3629
I347
sS'dates'
p3630
I870
sS'787'
p3631
I1680
sS'according'
p3632
I1758
sS'tour'
p3633
I2377
sS'disappointment'
p3634
I494
sS'spare'
p3635
I2571
sS'holders'
p3636
I4243
sS'among'
p3637
I4102
sS'cancer'
p3638
I3879
sS'cancel'
p3639
I508
sS'nose'
p3640
I5859
sS'considering'
p3641
I2252
sS'unusual'
p3642
I2329
sS'capable'
p3643
I5662
sS'mark'
p3644
I1922
sS'jb'
p3645
I3684
sS'shopping'
p3646
I3220
sS'offered'
p3647
I791
sS'redeye'
p3648
I3678
sS'wake'
p3649
I3286
sS'those'
p3650
I484
sS'^'
p3651
I152
sS'sound'
p3652
I681
sS'disconnected'
p3653
I2807
sS'ongoing'
p3654
I1990
sS'cancelled'
p3655
I234
sS'investigating'
p3656
I4439
sS'bathrooms'
p3657
I5587
sS'eventually'
p3658
I2322
sS'sincere'
p3659
I983
sS'coffee'
p3660
I1287
sS'sleeping'
p3661
I2748
sS'middle'
p3662
I985
sS'westjet'
p3663
I1385
sS'loosing'
p3664
I4493
sS'everyday'
p3665
I3110
sS'bags'
p3666
I176
sS'different'
p3667
I453
sS'doctor'
p3668
I4294
sS'pax'
p3669
I1746
sS'pay'
p3670
I311
sS'same'
p3671
I295
sS'struggling'
p3672
I3492
sS'dated'
p3673
I5642
sS'oil'
p3674
I4950
sS'assist'
p3675
I158
sS'companion'
p3676
I1542
sS'running'
p3677
I1032
sS'0787'
p3678
I3621
sS'climbing'
p3679
I5144
sS'totally'
p3680
I1082
sS'conor'
p3681
I4888
sS'wellington'
p3682
I3965
sS'solve'
p3683
I2482
sS'bottle'
p3684
I2652
sS'bumping'
p3685
I4756
sS'amazed'
p3686
I4861
sS'gates'
p3687
I1310
sS'money'
p3688
I608
sS'adjustments'
p3689
I4916
sS'happyholidays'
p3690
I3988
sS'barbados'
p3691
I3145
sS'clueless'
p3692
I4657
sS'perth'
p3693
I2067
sS'4'
p3694
I213
sS'preflight'
p3695
I5993
sS'mon'
p3696
I1888
sS'mom'
p3697
I1175
sS'disappointed'
p3698
I342
sS'server'
p3699
I3627
sS'facing'
p3700
I3570
sS'reimbursing'
p3701
I5986
sS'either'
p3702
I546
sS'served'
p3703
I1857
sS'cabo'
p3704
I4594
sS'moving'
p3705
I1282
sS'matching'
p3706
I5083
sS'gross'
p3707
I4050
sS'outs'
p3708
I5799
sS'confirm'
p3709
I378
sS'aussie'
p3710
I5994
sS'airways'
p3711
I940
sS'seconds'
p3712
I3524
sS'40p'
p3713
I5152
sS'broken'
p3714
I704
sS'stations'
p3715
I4855
sS'island'
p3716
I3341
sS'xna'
p3717
I5620
sS'airline'
p3718
I247
sS'youve'
p3719
I3418
sS'mixed'
p3720
I3880
sS'provisional'
p3721
I5363
sS'road'
p3722
I2683
sS'yyt'
p3723
I4112
sS'lands'
p3724
I3408
sS'coupon'
p3725
I3504
sS'spreading'
p3726
I4136
sS'blessed'
p3727
I3819
sS'vacation'
p3728
I756
sS'references'
p3729
I3667
sS'inbox'
p3730
I2896
sS'yyc'
p3731
I1794
sS'koru'
p3732
I5509
sS'compliant'
p3733
I5976
sS'passports'
p3734
I4226
sS'mornings'
p3735
I5279
sS'buggy'
p3736
I3349
sS'strikes'
p3737
I3332
sS'arranged'
p3738
I3411
sS'roadwarrior'
p3739
I5450
sS'suitcase'
p3740
I860
sS'videos'
p3741
I4495
sS'deep'
p3742
I4339
sS'fellow'
p3743
I3583
sS'enable'
p3744
I5264
sS'departments'
p3745
I5323
sS'file'
p3746
I345
sS'girlfriend'
p3747
I2851
sS'lifetime'
p3748
I3287
sS'stansted'
p3749
I2288
sS'fill'
p3750
I1031
sS'again'
p3751
I106
sS'istanbul'
p3752
I3853
sS'personnel'
p3753
I2501
sS'drivers'
p3754
I3826
sS'schipol'
p3755
I3820
sS'field'
p3756
I3076
sS'flydelta'
p3757
I4780
sS'students'
p3758
I3919
sS'important'
p3759
I833
sS'recent'
p3760
I1239
sS'20mins'
p3761
I4375
sS'remote'
p3762
I5166
sS'unload'
p3763
I5936
sS'u'
p3764
I261
sS'7747'
p3765
I5081
sS'kuwait'
p3766
I3825
sS'alright'
p3767
I2507
sS'starting'
p3768
I1306
sS'forget'
p3769
I1823
sS'allergy'
p3770
I3885
sS'dollar'
p3771
I4173
sS'.....'
p3772
I1350
sS'liam'
p3773
I2610
sS'children'
p3774
I1275
sS'enjoying'
p3775
I897
sS'premium'
p3776
I1097
sS'returning'
p3777
I1898
sS'fall'
p3778
I2824
sS'winning'
p3779
I2446
sS'difference'
p3780
I890
sS'norfolk'
p3781
I5915
sS'applicable'
p3782
I2848
sS'reminding'
p3783
I4965
sS'20th'
p3784
I3624
sS'zero'
p3785
I1633
sS'layover'
p3786
I1188
sS'link'
p3787
I188
sS'further'
p3788
I292
sS'dial'
p3789
I4081
sS'abc'
p3790
I5995
sS'stood'
p3791
I4380
sS'abq'
p3792
I3869
sS'abt'
p3793
I2479
sS'abu'
p3794
I4581
sS'abz'
p3795
I4538
sS'fingerscrossed'
p3796
I2962
sS'public'
p3797
I1428
sS'movement'
p3798
I5131
sS'outgoing'
p3799
I5795
sS'5000'
p3800
I5536
sS'operating'
p3801
I1313
sS'900'
p3802
I3526
sS'tweets'
p3803
I1144
sS'fwd'
p3804
I4188
sS'9559'
p3805
I4795
sS'airport'
p3806
I90
sS'published'
p3807
I4860
sS'buses'
p3808
I4390
sS'transit'
p3809
I2128
sS'africa'
p3810
I3202
sS'rollover'
p3811
I3245
sS'eye'
p3812
I769
sS'destination'
p3813
I462
sS'two'
p3814
I318
sS'amenities'
p3815
I3119
sS'diamond'
p3816
I3189
sS'engaged'
p3817
I3973
sS'mozilla'
p3818
I4244
sS'landed'
p3819
I635
sS'particular'
p3820
I1970
sS'town'
p3821
I2221
sS'8hrs'
p3822
I5916
sS'none'
p3823
I1521
sS'hour'
p3824
I199
sS'cluster'
p3825
I5825
sS'ohare'
p3826
I3476
sS'des'
p3827
I5344
sS'sucks'
p3828
I1202
sS'remain'
p3829
I1848
sS'del'
p3830
I3773
sS'den'
p3831
I1528
sS'dec'
p3832
I1851
sS'def'
p3833
I3851
sS'purchases'
p3834
I3072
sS'compare'
p3835
I5871
sS'sharm'
p3836
I3629
sS'galleries'
p3837
I3716
sS'share'
p3838
I237
sS'minimum'
p3839
I2030
sS'numbers'
p3840
I879
sS'purchased'
p3841
I836
sS'sharp'
p3842
I5209
sS'!'
p3843
I15
sS'needs'
p3844
I627
sS'awkward'
p3845
I5224
sS'lousy'
p3846
I4370
sS'comfort'
p3847
I977
sS'cst'
p3848
I5226
sS'csr'
p3849
I4141
sS'advice'
p3850
I1302
sS'par'
p3851
I4537
sS'bkk'
p3852
I3731
sS'connectivity'
p3853
I5132
sS'coming'
p3854
I579
sS'response'
p3855
I289
sS'tweeting'
p3856
I1627
sS'toiletries'
p3857
I3761
sS'responsibility'
p3858
I2129
sS'pleasure'
p3859
I611
sS'playing'
p3860
I1843
sS'infant'
p3861
I1264
sS'through'
p3862
I256
sS'suffer'
p3863
I5715
sS'24'
p3864
I416
sS'messed'
p3865
I2120
sS'26'
p3866
I1855
sS'27'
p3867
I1905
sS'20'
p3868
I426
sS'21'
p3869
I1279
sS'22'
p3870
I1281
sS'23'
p3871
I1348
sS'thnx'
p3872
I2818
sS'28'
p3873
I1840
sS'29'
p3874
I1904
sS'late'
p3875
I265
sS'good'
p3876
I120
sS'disrespectful'
p3877
I4176
sS'seeking'
p3878
I4969
sS'noticing'
p3879
I4771
sS'okc'
p3880
I3180
sS'stepped'
p3881
I5214
sS'mystery'
p3882
I5978
sS'easily'
p3883
I2595
sS'pregnant'
p3884
I2404
sS'2x'
p3885
I2758
sS'gender'
p3886
I5711
sS'2h'
p3887
I4356
sS'ports'
p3888
I4132
sS'2k'
p3889
I5780
sS'joburg'
p3890
I5975
sS'everyone'
p3891
I477
sS'callum'
p3892
I5296
sS'delicious'
p3893
I2248
sS'house'
p3894
I2304
sS'fish'
p3895
I5104
sS'hard'
p3896
I386
sS'idea'
p3897
I740
sS'extended'
p3898
I2158
sS'connect'
p3899
I1277
sS'portland'
p3900
I2804
sS'insurance'
p3901
I1731
sS'acting'
p3902
I5930
sS'print'
p3903
I917
sS'pathetic'
p3904
I2126
sS'pleasant'
p3905
I698
sS'difficulty'
p3906
I2491
sS'terminals'
p3907
I3023
sS'members'
p3908
I775
sS'backed'
p3909
I2892
sS'beginning'
p3910
I2575
sS'cheers'
p3911
I950
sS'benefits'
p3912
I1703
sS'computers'
p3913
I3241
sS'diversion'
p3914
I3479
sS'pilots'
p3915
I1003
sS'dont'
p3916
I916
sS'valentine'
p3917
I3865
sS'done'
p3918
I385
sS'rerouted'
p3919
I2783
sS'5th'
p3920
I2562
sS'smoother'
p3921
I3502
sS'least'
p3922
I559
sS'paint'
p3923
I4654
sS'regulation'
p3924
I5180
sS'statement'
p3925
I2339
sS'compartment'
p3926
I5694
sS'park'
p3927
I3029
sS'part'
p3928
I657
sS'believe'
p3929
I848
sS'percentage'
p3930
I4689
sS'clarifying'
p3931
I4276
sS'b'
p3932
I606
sS'compliments'
p3933
I1804
sS'gotten'
p3934
I1845
sS'866'
p3935
I2073
sS'recording'
p3936
I5597
sS'supposed'
p3937
I750
sS'treated'
p3938
I1265
sS'bassinet'
p3939
I3607
sS'outta'
p3940
I5200
sS'ages'
p3941
I3130
sS'roughly'
p3942
I5634
sS'orders'
p3943
I4461
sS'built'
p3944
I5220
sS'depending'
p3945
I1552
sS'majority'
p3946
I4589
sS'becca'
p3947
I4727
sS'build'
p3948
I4958
sS'chart'
p3949
I5614
sS'serviced'
p3950
I5979
sS'most'
p3951
I407
sS'charm'
p3952
I5408
sS'significant'
p3953
I4382
sS'services'
p3954
I538
sS'extremely'
p3955
I1151
sS'kc'
p3956
I1519
sS'kg'
p3957
I2316
sS'goodwill'
p3958
I3505
sS'km'
p3959
I2478
sS'kl'
p3960
I2591
sS'cramped'
p3961
I4307
sS'organise'
p3962
I5362
sS'weigh'
p3963
I4471
sS'joining'
p3964
I2257
sS'sector'
p3965
I4620
sS'particularly'
p3966
I3915
sS'mahalo'
p3967
I3654
sS'relation'
p3968
I3237
sS'nonrefundable'
p3969
I4348
sS'carefully'
p3970
I2668
sS'fine'
p3971
I744
sS'find'
p3972
I259
sS'cell'
p3973
I3121
sS'giant'
p3974
I5277
sS'merger'
p3975
I2046
sS'nervous'
p3976
I2187
sS'ruin'
p3977
I2672
sS'waiting'
p3978
I194
sS'unhappy'
p3979
I910
sS'idiots'
p3980
I5206
sS'override'
p3981
I5422
sS'8'
p3982
I445
sS'merged'
p3983
I4711
sS'weve'
p3984
I3179
sS'permission'
p3985
I4450
sS'express'
p3986
I2045
sS'cheaper'
p3987
I1592
sS'breast'
p3988
I4990
sS'reclining'
p3989
I5914
sS'resolve'
p3990
I1087
sS'remove'
p3991
I1394
sS'common'
p3992
I2635
sS'locating'
p3993
I3845
sS'geoff'
p3994
I4075
sS'individual'
p3995
I2867
sS'lisbon'
p3996
I3320
sS'11th'
p3997
I4140
sS'repairs'
p3998
I5635
sS'visiting'
p3999
I2655
sS'please'
p4000
I31
sS'upsetting'
p4001
I2397
sS'fans'
p4002
I3232
sS'changeable'
p4003
I5730
sS'champagne'
p4004
I2586
sS'skyteam'
p4005
I3055
sS'responses'
p4006
I2555
sS'complementary'
p4007
I5108
sS'nashville'
p4008
I1968
sS'aircraft'
p4009
I430
sS'pissed'
p4010
I2334
sS'annual'
p4011
I4598
sS'foreign'
p4012
I4293
sS'alot'
p4013
I5170
sS'baltimore'
p4014
I2801
sS'upgraded'
p4015
I1039
sS'!!!!!!!'
p4016
I5153
sS'point'
p4017
I589
sS'simple'
p4018
I1772
sS'dietary'
p4019
I5608
sS'simply'
p4020
I1790
sS'upgrades'
p4021
I865
sS'throughout'
p4022
I2676
sS'expensive'
p4023
I1510
sS'patiently'
p4024
I4427
sS'platinum'
p4025
I783
sS'raise'
p4026
I2003
sS'create'
p4027
I1956
sS'secret'
p4028
I4033
sS'dropping'
p4029
I3509
sS'ireland'
p4030
I2550
sS'meeting'
p4031
I1607
sS'gas'
p4032
I3424
sS'priced'
p4033
I4190
sS'understand'
p4034
I291
sS'prices'
p4035
I882
sS'solid'
p4036
I3586
sS'bill'
p4037
I3431
sS'replaced'
p4038
I3942
sS'fun'
p4039
I516
sS'portugal'
p4040
I4864
sS'encountered'
p4041
I2274
sS'cathay'
p4042
I4612
sS'itself'
p4043
I2378
sS'xtra'
p4044
I4734
sS'!:)'
p4045
I2469
sS'italy'
p4046
I2390
sS'ewr'
p4047
I1092
sS'development'
p4048
I5815
sS'dhabi'
p4049
I4748
sS'syd'
p4050
I1415
sS'keys'
p4051
I5116
sS'assignment'
p4052
I1933
sS'yesterday'
p4053
I410
sS'desks'
p4054
I2081
sS'husbands'
p4055
I5058
sS'syr'
p4056
I5561
sS'moment'
p4057
I571
sS'purpose'
p4058
I3782
sS'nola'
p4059
I4116
sS'spent'
p4060
I1088
sS'y'
p4061
I1932
sS'organization'
p4062
I4516
sS'spend'
p4063
I1117
sS'preference'
p4064
I3147
sS'ceo'
p4065
I3209
sS'ldn'
p4066
I3530
sS'(#'
p4067
I5590
sS'alternative'
p4068
I1505
sS'letting'
p4069
I514
sS'cut'
p4070
I1682
sS'cup'
p4071
I2688
sS'diversions'
p4072
I5843
sS'blankets'
p4073
I3453
sS'alternate'
p4074
I1416
sS'cuz'
p4075
I2809
sS'source'
p4076
I3876
sS'snap'
p4077
I5032
sS'cun'
p4078
I3557
sS'excited'
p4079
I601
sS'ridiculously'
p4080
I4720
sS'big'
p4081
I539
sS'bid'
p4082
I5977
sS'start_id'
p4083
I6002
sS'matters'
p4084
I3419
sS'redeem'
p4085
I2354
sS'biz'
p4086
I1558
sS'bit'
p4087
I596
sS'knock'
p4088
I4134
sS'indication'
p4089
I4915
sS'b777'
p4090
I4923
sS'google'
p4091
I3024
sS'often'
p4092
I1382
sS'30p'
p4093
I2178
sS'back'
p4094
I97
sS'30k'
p4095
I4892
sS'pricing'
p4096
I2416
sS'30a'
p4097
I3347
sS'lightning'
p4098
I5549
sS'ourselves'
p4099
I2699
sS'scale'
p4100
I5721
sS'contacts'
p4101
I3933
sS'pet'
p4102
I2177
sS'decision'
p4103
I1403
sS'integration'
p4104
I2953
sS'per'
p4105
I708
sS'cast'
p4106
I5955
sS'newark'
p4107
I1305
sS'connecting'
p4108
I482
sS'pek'
p4109
I5571
sS'epic'
p4110
I2739
sS'laughing'
p4111
I4798
sS'patient'
p4112
I2009
sS'300'
p4113
I1562
sS'continuing'
p4114
I3709
sS'use'
p4115
I272
sS'restrictive'
p4116
I5311
sS'fee'
p4117
I421
sS'lounges'
p4118
I1967
sS'from'
p4119
I46
sS'usb'
p4120
I2727
sS'goods'
p4121
I5021
sS'8pm'
p4122
I2664
sS'misplaced'
p4123
I4204
sS'satisfactory'
p4124
I5511
sS'lesson'
p4125
I3308
sS'mke'
p4126
I2954
sS'ontario'
p4127
I5353
sS'kirsty'
p4128
I3725
sS'flght'
p4129
I5674
sS'forward'
p4130
I206
sS'bored'
p4131
I4544
sS'invite'
p4132
I1388
sS'immigration'
p4133
I3393
sS'hoped'
p4134
I4520
sS'boys'
p4135
I3783
sS'sdf'
p4136
I4179
sS'hopes'
p4137
I5375
sS'directed'
p4138
I3688
sS'planet'
p4139
I5566
sS'planes'
p4140
I465
sS'constant'
p4141
I3265
sS'metal'
p4142
I3471
sS'single'
p4143
I1360
sS'%'
p4144
I1179
sS'excuses'
p4145
I3311
sS'functionality'
p4146
I4977
sS'explaining'
p4147
I4189
sS'lend'
p4148
I3926
sS'favourite'
p4149
I2431
sS'prepared'
p4150
I3020
sS'utterly'
p4151
I4342
sS'appalling'
p4152
I1906
sS'2000'
p4153
I4497
sS'2004'
p4154
I5972
sS'failures'
p4155
I5782
sS'stroller'
p4156
I2050
sS'minors'
p4157
I4126
sS'bulkhead'
p4158
I3700
sS'query'
p4159
I878
sS'3hr'
p4160
I3639
sS'peanut'
p4161
I4428
sS'helps'
p4162
I965
sS'staffing'
p4163
I4137
sS'presently'
p4164
I5791
sS'putting'
p4165
I1692
sS'commute'
p4166
I5556
sS'arrange'
p4167
I1374
sS'severely'
p4168
I4600
sS'salad'
p4169
I3956
sS'shock'
p4170
I5528
sS'busier'
p4171
I5832
sS'min'
p4172
I526
sS'havent'
p4173
I2443
sS'uncomfortable'
p4174
I1907
sS'copenhagen'
p4175
I3280
sS'3x'
p4176
I3478
sS'ticketing'
p4177
I2035
sS'chicago'
p4178
I686
sS'giving'
p4179
I866
sS'assisted'
p4180
I1760
sS'inconveniences'
p4181
I1828
sS'access'
p4182
I563
sS'3h'
p4183
I5319
sS'inconvenienced'
p4184
I2939
sS'body'
p4185
I4466
sS'exchange'
p4186
I3648
sS'packing'
p4187
I4022
sS'others'
p4188
I1193
sS'sing'
p4189
I4386
sS'extreme'
p4190
I4668
sS'39'
p4191
I3596
sS'38'
p4192
I3468
sS'33'
p4193
I3167
sS'32'
p4194
I2816
sS'31'
p4195
I1859
sS'30'
p4196
I344
sS'37'
p4197
I3712
sS'36'
p4198
I1991
sS'35'
p4199
I1040
sS'34'
p4200
I3420
sS'cert'
p4201
I4605
sS'existent'
p4202
I5225
sS'honor'
p4203
I1971
sS'named'
p4204
I2906
sS'blizzard'
p4205
I4559
sS'private'
p4206
I1328
sS'privately'
p4207
I4820
sS'lima'
p4208
I3895
sS'cha'
p4209
I5640
sS'taxiing'
p4210
I3719
sS'chg'
p4211
I5154
sS'chi'
p4212
I4349
sS'chk'
p4213
I5198
sS'seamless'
p4214
I2971
sS'chs'
p4215
I3823
sS'themselves'
p4216
I3071
sS'supposedly'
p4217
I4753
sS'upcoming'
p4218
I1471
sS'kiosk'
p4219
I1910
sS'reissued'
p4220
I4405
sS'train'
p4221
I1435
sS'ashamed'
p4222
I3548
sS'arranging'
p4223
I5670
sS'4am'
p4224
I3763
sS'account'
p4225
I389
sS'f'
p4226
I1214
sS'tunnel'
p4227
I5925
sS'0800'
p4228
I4158
sS'unreal'
p4229
I3435
sS'obvious'
p4230
I4408
sS'praise'
p4231
I2619
sS'closing'
p4232
I2869
sS'didnt'
p4233
I1653
sS'disabilities'
p4234
I5333
sS'reserved'
p4235
I2060
sS'snacks'
p4236
I1129
sS'lame'
p4237
I3271
sS'holds'
p4238
I4473
sS'varies'
p4239
I5615
sS'winners'
p4240
I5349
sS'05pm'
p4241
I5407
sS'stock'
p4242
I4180
sS'profile'
p4243
I1939
sS'incompetence'
p4244
I2186
sS'collection'
p4245
I4433
sS'bothered'
p4246
I3765
sS'chasing'
p4247
I4658
sS'lines'
p4248
I1033
sS'9am'
p4249
I3040
sS'furious'
p4250
I4083
sS'bins'
p4251
I2922
sS'wedding'
p4252
I1051
sS'lingus'
p4253
I4512
sS'nasty'
p4254
I3780
sS'bunch'
p4255
I2616
sS'lb'
p4256
I2268
sS'la'
p4257
I816
sS'll'
p4258
I2453
sS'lj'
p4259
I3249
sS'lh'
p4260
I3477
sS'labor'
p4261
I5370
sS'lt'
p4262
I253
sS'willing'
p4263
I2280
sS'ls'
p4264
I3578
sS'cardholder'
p4265
I4567
sS'eur'
p4266
I3847
sS'dad'
p4267
I1500
sS'greater'
p4268
I4833
sS'dal'
p4269
I2419
sS'mention'
p4270
I1568
sS'cutting'
p4271
I3534
sS'yyz'
p4272
I1047
sS'day'
p4273
I137
sS'strive'
p4274
I1445
sS'february'
p4275
I2403
sS'airports'
p4276
I1186
sS'tues'
p4277
I3636
sS'disregard'
p4278
I5271
sS'apologize'
p4279
I302
sS'waking'
p4280
I5534
sS'res'
p4281
I2261
sS'rep'
p4282
I915
sS'req'
p4283
I5778
sS'mate'
p4284
I4314
sS'rec'
p4285
I4474
sS'wheelsup'
p4286
I2673
sS'ref'
p4287
I368
sS'reg'
p4288
I5298
sS'announced'
p4289
I1964
sS'retrieved'
p4290
I5537
sS'clarify'
p4291
I1574
sS'bwi'
p4292
I1271
sS'receipts'
p4293
I1269
sS'interaction'
p4294
I4299
sS'skateboard'
p4295
I5163
sS'retain'
p4296
I5961
sS'south'
p4297
I1718
sS'rudely'
p4298
I4410
sS'hemigram'
p4299
I5543
sS'finest'
p4300
I5989
sS'justine'
p4301
I3226
sS'deltaairlines'
p4302
I3361
sS'philadelphia'
p4303
I2647
sS'whoop'
p4304
I5409
sS'improvements'
p4305
I3011
sS'reached'
p4306
I1340
sS'sadly'
p4307
I2077
sS'bologna'
p4308
I5099
sS'messing'
p4309
I3918
sS'cabin'
p4310
I370
sS'comair'
p4311
I5810
sS'gear'
p4312
I3207
sS'completed'
p4313
I1423
sS'nobody'
p4314
I1296
sS'ogg'
p4315
I4269
sS'ipad'
p4316
I1325
sS'loved'
p4317
I1421
sS'sweden'
p4318
I5446
sS'loves'
p4319
I3634
sS'visited'
p4320
I5909
sS'horrendous'
p4321
I3037
sS'comfortable'
p4322
I1149
sS'unlikely'
p4323
I4217
sS'have'
p4324
I19
sS'apparently'
p4325
I1001
sS'dallas'
p4326
I3555
sS'mia'
p4327
I814
sS'mid'
p4328
I2012
sS'323'
p4329
I4465
sS'concerns'
p4330
I938
sS'325'
p4331
I1796
sS'mis'
p4332
I5866
sS'unless'
p4333
I1329
sS'sfo'
p4334
I560
sS'eight'
p4335
I5706
sS'handbag'
p4336
I2480
sS'payment'
p4337
I933
sS'stranded'
p4338
I926
sS'request'
p4339
I358
sS'absurd'
p4340
I3205
sS'occasion'
p4341
I2837
sS'normally'
p4342
I1709
sS'selection'
p4343
I1478
sS'text'
p4344
I1701
sS'staff'
p4345
I215
sS'5pm'
p4346
I3103
sS'knowledge'
p4347
I5091
sS'resubmit'
p4348
I3229
sS'2247'
p4349
I2658
sS'a319'
p4350
I3591
sS'regularly'
p4351
I2956
sS'exceptional'
p4352
I2155
sS'beat'
p4353
I2532
sS'coworker'
p4354
I5478
sS'bear'
p4355
I2175
sS'timing'
p4356
I3297
sS'getittogether'
p4357
I5183
sS'areas'
p4358
I4182
sS'teams'
p4359
I1367
sS'fixed'
p4360
I1053
sS'exists'
p4361
I5563
sS'national'
p4362
I2712
sS'theres'
p4363
I3236
sS'safetyfirst'
p4364
I4952
sS'attempting'
p4365
I3983
sS'clearing'
p4366
I2214
sS'purser'
p4367
I4240
sS'discounts'
p4368
I3538
sS'difficulties'
p4369
I1355
sS'routing'
p4370
I3043
sS'routine'
p4371
I5470
sS'progress'
p4372
I2190
sS'deliver'
p4373
I1539
sS'optional'
p4374
I4398
sS'legit'
p4375
I4095
sS'empathy'
p4376
I4186
sS'45am'
p4377
I4133
sS'joke'
p4378
I954
sS'taking'
p4379
I394
sS'trips'
p4380
I1289
sS'assure'
p4381
I1294
sS'busted'
p4382
I4988
sS'15min'
p4383
I5812
sS'passing'
p4384
I2239
sS'otherwise'
p4385
I1493
sS'comment'
p4386
I1819
sS'detailed'
p4387
I2277
sS'relevant'
p4388
I1569
sS'gone'
p4389
I1028
sS'commend'
p4390
I5182
sS'laugh'
p4391
I3715
sS'earning'
p4392
I3533
sS'certain'
p4393
I1606
sS'southwestheart'
p4394
I2675
sS'aj'
p4395
I5034
sS'airplanes'
p4396
I3084
sS'??!!'
p4397
I5762
sS'finished'
p4398
I3279
sS'general'
p4399
I1969
sS'volunteer'
p4400
I4292
sS'airnz'
p4401
I5749
sS'multi'
p4402
I2671
sS'holiday'
p4403
I582
sS'welcoming'
p4404
I1049
sS'plain'
p4405
I4355
sS'value'
p4406
I1335
sS'hubs'
p4407
I5424
sS'frustrating'
p4408
I381
sS'amenity'
p4409
I4743
sS'manually'
p4410
I3800
sS'chaotic'
p4411
I5174
sS'helped'
p4412
I1008
sS'arrangements'
p4413
I2557
sS'claimed'
p4414
I4138
sS'partner'
p4415
I1058
sS')'
p4416
I138
sS'film'
p4417
I4404
sS'shuttle'
p4418
I2224
sS'reporting'
p4419
I3940
sS'ios'
p4420
I2231
sS'fucked'
p4421
I4867
sS'malaga'
p4422
I2588
sS'4010'
p4423
I2966
sS'thought'
p4424
I811
sS'oops'
p4425
I2585
sS'denpasar'
p4426
I4821
sS'sets'
p4427
I3910
sS'position'
p4428
I1926
sS'usual'
p4429
I1154
sS'deltas'
p4430
I5875
sS'executive'
p4431
I1006
sS'domestic'
p4432
I858
sS'interim'
p4433
I3939
sS'seats'
p4434
I181
sS'tone'
p4435
I4484
sS'ads'
p4436
I4849
sS'30am'
p4437
I2091
sS'pushchair'
p4438
I4768
sS'onward'
p4439
I3175
sS'badcustomerservice'
p4440
I2919
sS'lake'
p4441
I3128
sS'handy'
p4442
I3416
sS'add'
p4443
I456
sS'aruba'
p4444
I4438
sS'citizen'
p4445
I4718
sS'adl'
p4446
I5677
sS'smart'
p4447
I3439
sS'resolved'
p4448
I995
sS'fyi'
p4449
I2085
sS'dubai'
p4450
I1206
sS'like'
p4451
I74
sS'success'
p4452
I2667
sS'11pm'
p4453
I4207
sS'kuala'
p4454
I4681
sS'works'
p4455
I963
sS'soft'
p4456
I4475
sS'italian'
p4457
I4419
sS'accessible'
p4458
I5729
sS'alive'
p4459
I5303
sS'hair'
p4460
I3387
sS'proper'
p4461
I2113
sS'halifax'
p4462
I3206
sS'happens'
p4463
I1013
sS'est'
p4464
I2996
sS'esp'
p4465
I3123
sS'hurricane'
p4466
I4316
sS'discretion'
p4467
I4616
sS'assuming'
p4468
I3760
sS'screwed'
p4469
I1871
sS'noise'
p4470
I5192
sS'slight'
p4471
I3909
sS'expiry'
p4472
I4472
sS'stellar'
p4473
I2829
sS'expire'
p4474
I2564
sS'although'
p4475
I1565
sS'a1'
p4476
I5329
sS':-('
p4477
I1678
sS':-)'
p4478
I329
sS'actual'
p4479
I1802
sS':-/'
p4480
I4121
sS'6am'
p4481
I2395
sS'6hr'
p4482
I5847
sS'introduced'
p4483
I5157
sS'!!'
p4484
I236
sS'!#'
p4485
I4399
sS'!"'
p4486
I3045
sS'!&'
p4487
I5415
sS'!)'
p4488
I2134
sS'socks'
p4489
I5142
sS'!.'
p4490
I5137
sS'doesnt'
p4491
I2038
sS'female'
p4492
I4145
sS'!?'
p4493
I1461
sS'rushed'
p4494
I5371
sS'awarded'
p4495
I5789
sS'biggest'
p4496
I2999
sS'buy'
p4497
I614
sS'chatting'
p4498
I5899
sS'bur'
p4499
I5079
sS'bus'
p4500
I1266
sS'brand'
p4501
I1617
sS'but'
p4502
I55
sS'reminds'
p4503
I5651
sS'havana'
p4504
I5855
sS'memphis'
p4505
I3967
sS'bug'
p4506
I3216
sS'wise'
p4507
I5550
sS'dangerous'
p4508
I4649
sS'j'
p4509
I587
sS'gohawks'
p4510
I4934
sS'minutes'
p4511
I296
sS'!^'
p4512
I3013
sS'replying'
p4513
I2250
sS'pin'
p4514
I3177
sS'domino'
p4515
I5585
sS'avgeek'
p4516
I1439
sS'skywards'
p4517
I2946
sS'pir'
p4518
I1660
sS'pit'
p4519
I2632
sS'48'
p4520
I1695
sS'49'
p4521
I3605
sS'46'
p4522
I4062
sS'47'
p4523
I4406
sS'44'
p4524
I2556
sS'45'
p4525
I628
sS'42'
p4526
I3593
sS'43'
p4527
I4063
sS'virtual'
p4528
I2639
sS'41'
p4529
I4089
sS'out'
p4530
I75
sS'bundle'
p4531
I4998
sS'resolution'
p4532
I1389
sS'thunderstorms'
p4533
I4640
sS'8th'
p4534
I3483
sS'limited'
p4535
I1577
sS'hats'
p4536
I4496
sS'facilities'
p4537
I3465
sS'sleep'
p4538
I1260
sS'hate'
p4539
I1076
sS'poorly'
p4540
I2731
sS'paris'
p4541
I3234
sS'tweet'
p4542
I361
sS'whatsoever'
p4543
I3896
sS'under'
p4544
I594
sS'pride'
p4545
I2874
sS'@'
p4546
I680
sS'risk'
p4547
I2741
sS'rise'
p4548
I5813
sS'every'
p4549
I373
sS'jack'
p4550
I4575
sS'encounter'
p4551
I4721
sS'school'
p4552
I2272
sS'browsers'
p4553
I2693
sS'enjoy'
p4554
I224
sS'bicycle'
p4555
I5773
sS'leaders'
p4556
I2514
sS'consistent'
p4557
I2168
sS'guidelines'
p4558
I2764
sS'direct'
p4559
I270
sS'fabulous'
p4560
I1270
sS'estimated'
p4561
I805
sS'shining'
p4562
I5864
sS'blue'
p4563
I658
sS'allowances'
p4564
I4347
sS'hide'
p4565
I5531
sS'selected'
p4566
I1820
sS'kul'
p4567
I4561
sS'2262'
p4568
I3908
sS'a330'
p4569
I3074
sS'disney'
p4570
I2831
sS'kicked'
p4571
I3388
sS'zach'
p4572
I3482
sS'rebooked'
p4573
I405
sS'hundreds'
p4574
I3423
sS'studio'
p4575
I5594
sS'path'
p4576
I4676
sS'digits'
p4577
I4341
sS'voice'
p4578
I3046
sS'hunting'
p4579
I5823
sS'luggage'
p4580
I164
sS'leaves'
p4581
I1564
sS'changed'
p4582
I544
sS'changes'
p4583
I485
sS'midway'
p4584
I3253
sS'york'
p4585
I1139
sS'kieran'
p4586
I5223
sS'feelings'
p4587
I4873
sS'patience'
p4588
I209
sS'lostluggage'
p4589
I4210
sS'heathrow'
p4590
I623
sS'would'
p4591
I61
sS'hospital'
p4592
I4280
sS'chargers'
p4593
I5480
sS'asset'
p4594
I5076
sS'25th'
p4595
I3315
sS'phone'
p4596
I239
sS'excellent'
p4597
I747
sS'tampa'
p4598
I1951
sS'must'
p4599
I491
sS'me'
p4600
I47
sS'md'
p4601
I1734
sS'join'
p4602
I2057
sS'mc'
p4603
I1647
sS'mb'
p4604
I1615
sS'mm'
p4605
I5332
sS'ml'
p4606
I1080
sS'mo'
p4607
I3441
sS'mi'
p4608
I5084
sS'cancellations'
p4609
I1024
sS'entertained'
p4610
I4691
sS'mt'
p4611
I4458
sS'mv'
p4612
I2284
sS'mp'
p4613
I5186
sS'ms'
p4614
I2696
sS'mr'
p4615
I1251
sS'my'
p4616
I32
sS'scheduling'
p4617
I2841
sS'times'
p4618
I340
sS'guarantee'
p4619
I1020
sS'end'
p4620
I552
sS'enquiry'
p4621
I3645
sS'sitting'
p4622
I459
sS'enquire'
p4623
I5410
sS'gate'
p4624
I150
sS'charging'
p4625
I1410
sS'badly'
p4626
I2929
sS'description'
p4627
I2335
sS'mess'
p4628
I1437
sS'40min'
p4629
I5494
sS'50pm'
p4630
I4630
sS'acknowledged'
p4631
I5821
sS'upside'
p4632
I5051
sS'enter'
p4633
I1584
sS'over'
p4634
I193
sS'expects'
p4635
I5786
sS'london'
p4636
I400
sS'cld'
p4637
I4258
sS'cle'
p4638
I2817
sS'socialmedia'
p4639
I3503
sS'expectations'
p4640
I2531
sS'writing'
p4641
I2749
sS'destroyed'
p4642
I3810
sS'404'
p4643
I4225
sS'400'
p4644
I2047
sS'clt'
p4645
I1014
sS'0844'
p4646
I3750
sS'rental'
p4647
I2241
sS'32kg'
p4648
I4608
sS'netherlands'
p4649
I4154
sS'notified'
p4650
I1866
sS'detroit'
p4651
I1690
sS'filling'
p4652
I2927
sS'each'
p4653
I636
sS'signing'
p4654
I4451
sS'misinformation'
p4655
I3970
sS'joined'
p4656
I4322
sS'celebrating'
p4657
I2935
sS'saturday'
p4658
I1174
sS'driving'
p4659
I1792
sS'god'
p4660
I1826
sS'nite'
p4661
I5101
sS'got'
p4662
I165
sS'newly'
p4663
I5576
sS'free'
p4664
I182
sS'freq'
p4665
I5996
sS'wanted'
p4666
I710
sS'days'
p4667
I249
sS'priorities'
p4668
I4790
sS'heck'
p4669
I3633
sS'hopeless'
p4670
I5485
sS'soda'
p4671
I5933
sS'onto'
p4672
I1077
sS'key'
p4673
I2467
sS'rang'
p4674
I4546
sS'already'
p4675
I278
sS'primary'
p4676
I4324
sS'hearing'
p4677
I561
sS'sarcasm'
p4678
I3580
sS'top'
p4679
I713
sS'confirming'
p4680
I2881
sS'ton'
p4681
I4265
sS'too'
p4682
I187
sS'tom'
p4683
I5009
sS'inconvenient'
p4684
I1737
sS'tool'
p4685
I3616
sS'serve'
p4686
I1321
sS'took'
p4687
I483
sS'incur'
p4688
I4235
sS'kev'
p4689
I2317
sS'classed'
p4690
I5540
sS'nominate'
p4691
I2768
sS'classes'
p4692
I3706
sS'10th'
p4693
I3414
sS'bridge'
p4694
I3238
sS'lbs'
p4695
I3428
sS'fashion'
p4696
I5673
sS'ran'
p4697
I2275
sS'talking'
p4698
I1614
sS'advising'
p4699
I4519
sS'relayed'
p4700
I5089
sS'thoroughly'
p4701
I3339
sS'-'
p4702
I35
sS'snow'
p4703
I1889
sS'thorough'
p4704
I5691
sS'client'
p4705
I3154
sS'laughed'
p4706
I5652
sS'though'
p4707
I384
sS'"...'
p4708
I4716
sS'dmed'
p4709
I4440
sS'plenty'
p4710
I1676
sS'inexcusable'
p4711
I5216
sS'promotions'
p4712
I3363
sS'treats'
p4713
I3385
sS'flow'
p4714
I4446
sS'reputation'
p4715
I5199
sS'entertaining'
p4716
I4632
sS'seasonal'
p4717
I4381
sS'contacted'
p4718
I1005
sS'saga'
p4719
I5435
sS'random'
p4720
I2592
sS'colors'
p4721
I4659
sS'reissue'
p4722
I4361
sS'radio'
p4723
I3904
sS'solutions'
p4724
I4220
sS'earth'
p4725
I3227
sS'availability'
p4726
I701
sS'situations'
p4727
I2990
sS'delays'
p4728
I208
sS'refreshment'
p4729
I3864
sS'lodge'
p4730
I5176
sS'announce'
p4731
I3027
sS'oct'
p4732
I1856
sS'sunglasses'
p4733
I5062
sS'watch'
p4734
I981
sS'gogo'
p4735
I3381
sS'despite'
p4736
I952
sS'report'
p4737
I401
sS'haiti'
p4738
I5171
sS'reinstall'
p4739
I5404
sS'gareth'
p4740
I2765
sS'countries'
p4741
I3701
sS'twice'
p4742
I824
sS'shots'
p4743
I4139
sS'automatic'
p4744
I3031
sS'habit'
p4745
I5970
sS'nut'
p4746
I4618
sS'bed'
p4747
I2324
sS'capacity'
p4748
I3813
sS'continually'
p4749
I4506
sS'grandmother'
p4750
I4811
sS'finger'
p4751
I5336
sS'muc'
p4752
I4023
sS'hopefully'
p4753
I639
sS'mum'
p4754
I2053
sS'approach'
p4755
I1878
sS'confusion'
p4756
I1025
sS'weak'
p4757
I5523
sS'however'
p4758
I461
sS'boss'
p4759
I3742
sS'phoning'
p4760
I5921
sS'wear'
p4761
I2827
sS'news'
p4762
I617
sS'improve'
p4763
I1194
sS'faced'
p4764
I5481
sS'protect'
p4765
I2965
sS'fault'
p4766
I1167
sS'games'
p4767
I3506
sS'faces'
p4768
I4491
sS'expense'
p4769
I3532
sS'trust'
p4770
I1516
sS'conference'
p4771
I3036
sS'bathroom'
p4772
I3049
sS'beef'
p4773
I5421
sS'been'
p4774
I78
sS'quickly'
p4775
I466
sS'confident'
p4776
I3102
sS'beer'
p4777
I2445
sS'expected'
p4778
I1034
sS'bereavement'
p4779
I3146
sS'transatlantic'
p4780
I3281
sS'catch'
p4781
I1225
sS'n'
p4782
I1199
sS'dept'
p4783
I1697
sS'stopping'
p4784
I3389
sS'procedure'
p4785
I2363
sS'runaround'
p4786
I5187
sS'expenses'
p4787
I1921
sS'experts'
p4788
I5204
sS'experience'
p4789
I129
sS'punctuality'
p4790
I4651
sS'surcharge'
p4791
I4881
sS'containing'
p4792
I4286
sS'suggest'
p4793
I851
sS'beside'
p4794
I4706
sS'inventory'
p4795
I3697
sS'several'
p4796
I1134
sS'satellite'
p4797
I5427
sS'sched'
p4798
I5649
sS'"!'
p4799
I5365
sS'",'
p4800
I2960
sS'".'
p4801
I1162
sS'social'
p4802
I1177
sS'greeted'
p4803
I4477
sS'characters'
p4804
I2685
sS'"?'
p4805
I2570
sS'":'
p4806
I5803
sS'shortly'
p4807
I595
sS'greatest'
p4808
I3614
sS'mother'
p4809
I1247
sS'hearts'
p4810
I4928
sS'1hr'
p4811
I1835
sS'departed'
p4812
I1572
sS'laptop'
p4813
I1376
sS'thumbs'
p4814
I3520
sS'depart'
p4815
I690
sS'furry'
p4816
I5595
sS'5h'
p4817
I5391
sS'5k'
p4818
I4786
sS'airmiles'
p4819
I4603
sS'gave'
p4820
I792
sS'aateam'
p4821
I854
sS'breaks'
p4822
I4042
sS'newcastle'
p4823
I2349
sS'judge'
p4824
I5745
sS'advanced'
p4825
I4411
sS'apart'
p4826
I1916
sS'59'
p4827
I3637
sS'58'
p4828
I4787
sS'gift'
p4829
I1357
sS'55'
p4830
I1492
sS'54'
p4831
I4703
sS'57'
p4832
I5115
sS'56'
p4833
I3843
sS'orlando'
p4834
I3923
sS'50'
p4835
I687
sS'53'
p4836
I5096
sS'52'
p4837
I4198
sS'ywg'
p4838
I5232
sS'informative'
p4839
I5510
sS'offices'
p4840
I4688
sS'officer'
p4841
I3644
sS'hung'
p4842
I1616
sS'frustrations'
p4843
I1985
sS'51'
p4844
I4728
sS'successfully'
p4845
I4218
sS'malaysia'
p4846
I5168
sS'clubs'
p4847
I2037
sS'advertise'
p4848
I5073
sS'guess'
p4849
I823
sS'specific'
p4850
I1057
sS'icn'
p4851
I4525
sS'companions'
p4852
I5598
sS'ice'
p4853
I2298
sS'everything'
p4854
I506
sS'allocate'
p4855
I3321
sS'421'
p4856
I5680
sS'425'
p4857
I5980
sS'christmas'
p4858
I672
sS'booking'
p4859
I98
sS'feesdontfly'
p4860
I4168
sS'deleted'
p4861
I3268
sS'disappeared'
p4862
I3215
sS'discount'
p4863
I1770
sS'permitted'
p4864
I2649
sS'plug'
p4865
I4211
sS'burbank'
p4866
I5098
sS'dinner'
p4867
I1725
sS'misleading'
p4868
I3990
sS'ensure'
p4869
I1322
sS'efforts'
p4870
I3243
sS'sept'
p4871
I1965
sS'ahh'
p4872
I4533
sS'ppl'
p4873
I1501
sS'accommodate'
p4874
I1494
sS'rely'
p4875
I4629
sS'class'
p4876
I279
sS'gig'
p4877
I4010
sS'virgin'
p4878
I794
sS'crews'
p4879
I1833
sS'gin'
p4880
I5369
sS'head'
p4881
I1432
sS'abysmal'
p4882
I5060
sS'attempted'
p4883
I5063
sS'6'
p4884
I356
sS'26th'
p4885
I3498
sS'spam'
p4886
I2229
sS'heat'
p4887
I2949
sS'hear'
p4888
I56
sS'removed'
p4889
I2243
sS'ruined'
p4890
I1246
sS'submitting'
p4891
I3958
sS'upset'
p4892
I921
sS'sometime'
p4893
I3350
sS'annoying'
p4894
I1919
sS'trip'
p4895
I196
sS'nj'
p4896
I4539
sS'tix'
p4897
I1654
sS'nm'
p4898
I4547
sS'no'
p4899
I50
sS'nc'
p4900
I3290
sS'when'
p4901
I87
sS'ne'
p4902
I5922
sS'ng'
p4903
I3021
sS'til'
p4904
I2032
sS'ny'
p4905
I1263
sS'nz'
p4906
I2068
sS'setting'
p4907
I3924
sS'whew'
p4908
I4085
sS'nr'
p4909
I5892
sS'nt'
p4910
I5903
sS'tia'
p4911
I5877
sS'picture'
p4912
I923
sS'reconsider'
p4913
I3405
sS'phoenix'
p4914
I1699
sS'football'
p4915
I3747
sS'longer'
p4916
I543
sS'1800'
p4917
I2790
sS':).'
p4918
I2700
sS'serious'
p4919
I1754
sS'coach'
p4920
I1691
sS'roc'
p4921
I4588
sS'alternatives'
p4922
I3372
sS'ouch'
p4923
I4308
sS'/'
p4924
I40
sS'row'
p4925
I650
sS'clarification'
p4926
I3356
sS'428'
p4927
I3966
sS'30pm'
p4928
I2180
sS'charge'
p4929
I448
sS'advantage'
p4930
I1836
sS'cool'
p4931
I676
sS'clouds'
p4932
I2427
sS'impressive'
p4933
I2594
sS'level'
p4934
I1300
sS'peeps'
p4935
I4420
sS'brother'
p4936
I1928
sS'standards'
p4937
I3193
sS'dep'
p4938
I3096
sS'domestically'
p4939
I4778
sS'quick'
p4940
I772
sS'yall'
p4941
I2090
sS'says'
p4942
I415
sS'voucher'
p4943
I566
sS'takeoff'
p4944
I1613
sS'reinstalling'
p4945
I5005
sS'chicken'
p4946
I3576
sS'drinks'
p4947
I1297
sS'stressful'
p4948
I2127
sS'stands'
p4949
I3638
sS'tarmac'
p4950
I762
sS'goes'
p4951
I1038
sS'reply'
p4952
I333
sS'water'
p4953
I1108
sS'groups'
p4954
I3143
sS'['
p4955
I1055
sS'cork'
p4956
I5205
sS'healthy'
p4957
I4432
sS'rethink'
p4958
I5471
sS'dublin'
p4959
I1121
sS'mauritius'
p4960
I5731
sS'christchurch'
p4961
I5797
sS'hospitality'
p4962
I2353
sS'weird'
p4963
I2551
sS'basel'
p4964
I5173
sS'1st'
p4965
I524
sS'touchdown'
p4966
I5092
sS'scam'
p4967
I1978
sS'?...'
p4968
I5412
sS'crisis'
p4969
I5588
sS'prem'
p4970
I4626
sS'handled'
p4971
I1208
sS'msy'
p4972
I2657
sS'stated'
p4973
I2457
sS'athens'
p4974
I3651
sS'msp'
p4975
I1136
sS'msn'
p4976
I5436
sS'handles'
p4977
I2437
sS'iphone'
p4978
I1491
sS'criteria'
p4979
I5457
sS'msg'
p4980
I2694
sS'australian'
p4981
I5466
sS'today'
p4982
I93
sS'clicking'
p4983
I4107
sS'dislikes'
p4984
I5052
sS'chocolate'
p4985
I3060
sS'employee'
p4986
I1146
sS'cases'
p4987
I1891
sS'local'
p4988
I951
sS'flagship'
p4989
I3906
sS'aircrafts'
p4990
I3487
sS'figure'
p4991
I1570
sS'concierge'
p4992
I5100
sS'dropped'
p4993
I1877
sS'counting'
p4994
I1224
sS'jetblue'
p4995
I709
sS'requirements'
p4996
I2217
sS'secured'
p4997
I5890
sS'cuba'
p4998
I3980
sS'1'
p4999
I64
sS'fourth'
p5000
I5023
sS'plus'
p5001
I717
sS'unbelievable'
p5002
I2007
sS'cocktail'
p5003
I4747
sS'information'
p5004
I240
sS'crashed'
p5005
I4394
sS'birthday'
p5006
I754
sS'unbelievably'
p5007
I5318
sS'liquid'
p5008
I3673
sS'2hrs'
p5009
I2133
sS'inform'
p5010
I1399
sS'refund'
p5011
I305
sS'midnight'
p5012
I1812
sS'blocked'
p5013
I2709
sS'organisation'
p5014
I5931
sS'platform'
p5015
I5105
sS'offers'
p5016
I1713
sS'happened'
p5017
I360
sS'qualifies'
p5018
I5207
sS'moms'
p5019
I4705
sS'delighted'
p5020
I2286
sS'underneath'
p5021
I5941
sS'qualified'
p5022
I5705
sS'term'
p5023
I2760
sS'name'
p5024
I235
sS'clutch'
p5025
I5535
sS'possibilities'
p5026
I2488
sS'realise'
p5027
I3872
sS'individually'
p5028
I4837
sS'catching'
p5029
I3891
sS'begun'
p5030
I5744
sS'sunrise'
p5031
I2400
sS'intended'
p5032
I2774
sS'ultimately'
p5033
I5605
sS'100k'
p5034
I5286
sS'factors'
p5035
I2295
sS'profit'
p5036
I4776
sS'cancels'
p5037
I2979
sS'autoreply'
p5038
I1499
sS'she'
p5039
I301
sS'eagle'
p5040
I4268
sS'qf'
p5041
I3002
sS'unfriendly'
p5042
I4070
sS'flyer'
p5043
I1043
sS'accommodation'
p5044
I2447
sS'yup'
p5045
I3061
sS'turn'
p5046
I1233
sS'yum'
p5047
I4230
sS'yul'
p5048
I2460
sS'charleston'
p5049
I4357
sS'discontinued'
p5050
I5926
sS'1000'
p5051
I2858
sS'origin'
p5052
I4325
sS'revenue'
p5053
I3466
sS'insist'
p5054
I5842
sS'acct'
p5055
I2735
sS'airbus'
p5056
I2455
sS'given'
p5057
I585
sS'iah'
p5058
I1722
sS'stuck'
p5059
I439
sS'iad'
p5060
I1663
sS'plastic'
p5061
I3519
sS'bahamas'
p5062
I4939
sS'returns'
p5063
I5228
sS'white'
p5064
I2997
sS'gives'
p5065
I1290
sS'hug'
p5066
I4785
sS'hub'
p5067
I2931
sS'season'
p5068
I2022
sS'screwing'
p5069
I3373
sS'released'
p5070
I1444
sS'alas'
p5071
I5736
sS'copy'
p5072
I1841
sS'holder'
p5073
I2638
sS'specify'
p5074
I1822
sS'serv'
p5075
I2757
sS'wide'
p5076
I3168
sS'unfortunately'
p5077
I403
sS'require'
p5078
I1336
sS'r'
p5079
I603
sS'coat'
p5080
I2402
sS'cards'
p5081
I1679
sS'outcome'
p5082
I3412
sS'dissapointed'
p5083
I4249
sS'pre'
p5084
I785
sS'anc'
p5085
I4429
sS'pro'
p5086
I3717
sS'reno'
p5087
I4540
sS'rent'
p5088
I3827
sS'any'
p5089
I67
sS'marathon'
p5090
I5122
sS'ideas'
p5091
I2216
sS'malta'
p5092
I4369
sS'dining'
p5093
I5738
sS'ideal'
p5094
I1710
sS'sure'
p5095
I156
sS'multiple'
p5096
I1211
sS'overbooking'
p5097
I2811
sS'falls'
p5098
I4889
sS'connor'
p5099
I4901
sS'cleared'
p5100
I2309
sS'icon'
p5101
I5372
sS'considered'
p5102
I2059
sS'jakarta'
p5103
I4664
sS'proud'
p5104
I1522
sS'hungry'
p5105
I2392
sS'uncle'
p5106
I5541
sS'senior'
p5107
I4027
sS'cheap'
p5108
I1983
sS'tkt'
p5109
I2260
sS'tks'
p5110
I3156
sS'woot'
p5111
I4912
sS'state'
p5112
I2106
sS'expectation'
p5113
I2041
sS'installed'
p5114
I4366
sS'freaking'
p5115
I4043
sS'closure'
p5116
I5923
sS'regarding'
p5117
I510
sS'jokes'
p5118
I4663
sS'embassy'
p5119
I3995
sS'bought'
p5120
I934
sS'ignored'
p5121
I2452
sS'#.'
p5122
I806
sS'#,'
p5123
I1637
sS'replies'
p5124
I3053
sS"#'"
p5125
I5102
sS'connections'
p5126
I1349
sS'college'
p5127
I3195
sS'parking'
p5128
I2751
sS'apologies'
p5129
I144
sS'smiling'
p5130
I3355
sS'fails'
p5131
I3007
sS'voluntary'
p5132
I3755
sS'ways'
p5133
I1544
sS'americanview'
p5134
I2705
sS'review'
p5135
I433
sS'outside'
p5136
I1452
sS'arrival'
p5137
I592
sS'25'
p5138
I699
sS'comp'
p5139
I2147
sS'guitar'
p5140
I2323
sS'cities'
p5141
I2093
sS'come'
p5142
I393
sS'efficiency'
p5143
I4501
sS'ryanair'
p5144
I1419
sS'quiet'
p5145
I3196
sS'contract'
p5146
I3690
sS'duty'
p5147
I1897
sS'afterwards'
p5148
I4875
sS'color'
p5149
I5011
sS'period'
p5150
I2247
sS'pop'
p5151
I3611
sS'60'
p5152
I1674
sS'61'
p5153
I5143
sS'62'
p5154
I4260
sS'65'
p5155
I3391
sS'67'
p5156
I3112
sS'pod'
p5157
I1641
sS'turkey'
p5158
I4641
sS'escalated'
p5159
I4362
sS'hardly'
p5160
I3960
sS'500'
p5161
I1630
sS'1212'
p5162
I1262
sS'direction'
p5163
I2793
sS'reimburse'
p5164
I2084
sS'careful'
p5165
I3630
sS'spirit'
p5166
I1545
sS'pilot'
p5167
I626
sS'paying'
p5168
I972
sS'myself'
p5169
I1222
sS'50k'
p5170
I5050
sS'amend'
p5171
I2608
sS'cash'
p5172
I1936
sS'career'
p5173
I4887
sS'50p'
p5174
I4378
sS'mqm'
p5175
I3374
sS'telephone'
p5176
I1783
sS'paxex'
p5177
I3894
sS'someone'
p5178
I325
sS'granted'
p5179
I5110
sS'reminded'
p5180
I4572
sS'check'
p5181
I63
sS'bermuda'
p5182
I4920
sS'manila'
p5183
I4344
sS'badservice'
p5184
I2428
sS'reminder'
p5185
I2915
sS'events'
p5186
I3343
sS'status'
p5187
I294
sS'screenshot'
p5188
I1954
sS'driver'
p5189
I2900
sS'driven'
p5190
I4078
sS'persons'
p5191
I5292
sS'nl'
p5192
I4191
sS'minimize'
p5193
I4733
sS'magical'
p5194
I3907
sS'yhz'
p5195
I4507
sS'without'
p5196
I391
sS'relief'
p5197
I4585
sS'model'
p5198
I3269
sS'reward'
p5199
I1791
sS'justify'
p5200
I4642
sS'brisbane'
p5201
I2302
sS'tip'
p5202
I3085
sS'actions'
p5203
I5000
sS'5hr'
p5204
I3327
sS'halfway'
p5205
I4951
sS'announcement'
p5206
I1753
sS'hint'
p5207
I4454
sS'seems'
p5208
I602
sS'except'
p5209
I1846
sS'complain'
p5210
I1586
sS'blog'
p5211
I3711
sS'lets'
p5212
I2161
sS'disrupt'
p5213
I2549
sS'scheduled'
p5214
I576
sS'delhi'
p5215
I2957
sS')..'
p5216
I4697
sS'schedules'
p5217
I1902
sS'accepted'
p5218
I2082
sS'waiving'
p5219
I5443
sS'tower'
p5220
I4960
sS'reduced'
p5221
I3788
sS'joking'
p5222
I4841
sS'madrid'
p5223
I1646
sS'pacific'
p5224
I4365
sS'snatched'
p5225
I5763
sS'table'
p5226
I3301
sS'provided'
p5227
I715
sS'caribbean'
p5228
I4161
sS'mood'
p5229
I3463
sS'gva'
p5230
I4114
sS'stops'
p5231
I3221
sS'moon'
p5232
I4669
sS'provides'
p5233
I4036
sS'provider'
p5234
I3430
sS'porter'
p5235
I5988
sS'swapic'
p5236
I4890
sS'communicate'
p5237
I2497
sS'polite'
p5238
I2567
sS'_'
p5239
I3905
sS'on'
p5240
I16
sS'ok'
p5241
I495
sS'oh'
p5242
I306
sS'of'
p5243
I28
sS'discussed'
p5244
I5567
sS'informing'
p5245
I3674
sS'oz'
p5246
I4169
sS'or'
p5247
I91
sS'op'
p5248
I5617
sS'ladies'
p5249
I2843
sS'communication'
p5250
I906
sS'accounts'
p5251
I2691
sS'determine'
p5252
I3201
sS'75k'
p5253
I5402
sS'baggages'
p5254
I5468
sS'there'
p5255
I62
sS'strict'
p5256
I4931
sS'racist'
p5257
I5580
sS'hare'
p5258
I2163
sS'750'
p5259
I1497
sS'757'
p5260
I3565
sS'regard'
p5261
I4624
sS'jun'
p5262
I5498
sS'jul'
p5263
I5257
sS'faster'
p5264
I2069
sS'applying'
p5265
I5026
sS'proactively'
p5266
I5307
sS'tonite'
p5267
I5641
sS'strongly'
p5268
I4791
sS'toilet'
p5269
I3378
sS'taste'
p5270
I3283
sS'minneapolis'
p5271
I3000
sS'tasty'
p5272
I4125
sS'blues'
p5273
I5358
sS'incorrect'
p5274
I2222
sS'hasnt'
p5275
I5159
sS'idiot'
p5276
I5451
sS'deserve'
p5277
I1834
sS'5'
p5278
I260
sS'announcements'
p5279
I2132
sS'trash'
p5280
I3486
sS'requested'
p5281
I1133
sS'eticket'
p5282
I5055
sS'pillows'
p5283
I5974
sS'separate'
p5284
I1242
sS'includes'
p5285
I3246
sS'recognise'
p5286
I4665
sS'included'
p5287
I1549
sS'spouse'
p5288
I5684
sS'finals'
p5289
I5856
sS';).'
p5290
I5505
sS'booked'
p5291
I222
sS'calls'
p5292
I867
sS'wife'
p5293
I675
sS'odds'
p5294
I4129
sS'wifi'
p5295
I388
sS'barcelona'
p5296
I1769
sS'all'
p5297
I72
sS'lack'
p5298
I889
sS'follow'
p5299
I116
sS'alt'
p5300
I5625
sS'pts'
p5301
I3890
sS'hmmm'
p5302
I2645
sS'lining'
p5303
I5428
sS'opportunities'
p5304
I3516
sS'program'
p5305
I1182
sS'presentation'
p5306
I5844
sS'fax'
p5307
I3267
sS'woman'
p5308
I1955
sS'worse'
p5309
I1103
sS'song'
p5310
I3183
sS'far'
p5311
I565
sS'fas'
p5312
I3779
sS'fav'
p5313
I3425
sS'fat'
p5314
I4846
sS'focus'
p5315
I4407
sS'sons'
p5316
I4009
sS'fan'
p5317
I1763
sS'fam'
p5318
I3052
sS'fab'
p5319
I1815
sS'ticket'
p5320
I172
sS'faa'
p5321
I3015
sS'treating'
p5322
I3334
sS'and'
p5323
I11
sS'list'
p5324
I670
sS'liars'
p5325
I5863
sS'programme'
p5326
I4961
sS'tel'
p5327
I3136
sS'ten'
p5328
I3113
sS'tea'
p5329
I2876
sS'rate'
p5330
I2141
sS'design'
p5331
I3342
sS'functioning'
p5332
I5339
sS'haag'
p5333
I4250
sS'what'
p5334
I57
sS'sub'
p5335
I5746
sS'sun'
p5336
I2036
sS'brief'
p5337
I3802
sS'version'
p5338
I1702
sS'attitudes'
p5339
I4802
sS'toes'
p5340
I5956
sS'tags'
p5341
I2606
sS'eligibility'
p5342
I5347
sS'unprofessional'
p5343
I2468
sS'7300'
p5344
I911
sS'behaviour'
p5345
I4859
sS'leeds'
p5346
I4288
sS'directions'
p5347
I5698
sS'essentials'
p5348
I3595
sS'mmm'
p5349
I5806
sS'zone'
p5350
I2282
sS'handlers'
p5351
I3056
sS'allows'
p5352
I2266
sS'identity'
p5353
I5719
sS'options'
p5354
I312
sS'sticking'
p5355
I4205
sS'thankfully'
p5356
I3256
sS'suddenly'
p5357
I4142
sS'screens'
p5358
I2361
sS'texts'
p5359
I5748
sS'clubworld'
p5360
I5838
sS'trueblue'
p5361
I1684
sS'proceed'
p5362
I2340
sS'oak'
p5363
I2921
sS'markets'
p5364
I5293
sS'minor'
p5365
I2156
sS'flat'
p5366
I2512
sS'knows'
p5367
I1599
sS'definition'
p5368
I5467
sS'flag'
p5369
I4680
sS'basically'
p5370
I2423
sS'known'
p5371
I1529
sS'glad'
p5372
I133
sS'firstworldproblems'
p5373
I4421
sS'v'
p5374
I1534
sS'tennis'
p5375
I5801
sS'needing'
p5376
I1622
sS'atrocious'
p5377
I4251
sS'challenging'
p5378
I3030
sS'frillcontrol'
p5379
I5113
sS'pond'
p5380
I5752
sS'airplane'
p5381
I1381
sS'court'
p5382
I4830
sS'goal'
p5383
I1918
sS'rather'
p5384
I988
sS'breaking'
p5385
I3082
sS'johannesburg'
p5386
I3751
sS'occasionally'
p5387
I6000
sS'buenos'
p5388
I4724
sS'explains'
p5389
I4967
sS'acknowledging'
p5390
I5522
sS'sandwich'
p5391
I3142
sS'okay'
p5392
I888
sS'cancun'
p5393
I2070
sS'reflect'
p5394
I3784
sS'lighting'
p5395
I4660
sS'adventure'
p5396
I2142
sS'short'
p5397
I774
sS'??!'
p5398
I5787
sS'departure'
p5399
I287
sS'callback'
p5400
I3367
sS'lhr'
p5401
I442
sS'travelskills'
p5402
I5479
sS'???'
p5403
I752
sS'mission'
p5404
I4731
sS'disabled'
p5405
I2686
sS'isnt'
p5406
I2511
sS'milwaukee'
p5407
I5288
sS'inquiries'
p5408
I4304
sS'style'
p5409
I2101
sS'pray'
p5410
I5259
sS'resort'
p5411
I4155
sS'strange'
p5412
I2062
sS'bout'
p5413
I3587
sS'nothappy'
p5414
I2524
sS'pram'
p5415
I5067
sS'alter'
p5416
I5630
sS'somebody'
p5417
I2558
sS'number'
p5418
I66
sS'15am'
p5419
I4049
sS'bigger'
p5420
I2704
sS'instructions'
p5421
I2873
sS'refresh'
p5422
I4535
sS'notimpressed'
p5423
I4464
sS'debacle'
p5424
I5177
sS'mastercard'
p5425
I5592
sS'12th'
p5426
I4117
sS'accommodated'
p5427
I3913
sS'malfunction'
p5428
I5675
sS'jetway'
p5429
I3703
sS'weight'
p5430
I1130
sS'posts'
p5431
I5919
sS'hawaii'
p5432
I1959
sS'expect'
p5433
I570
sS'organised'
p5434
I5867
sS'alcohol'
p5435
I3556
sS'wondered'
p5436
I4504
sS'4pm'
p5437
I3677
sS'health'
p5438
I3278
sS'paradise'
p5439
I4565
sS'friday'
p5440
I875
sS'forgive'
p5441
I4055
sS'cookie'
p5442
I4470
sS'teach'
p5443
I4297
sS'worstcustomerservice'
p5444
I5562
sS'thrown'
p5445
I5568
sS'wld'
p5446
I4391
sS'feed'
p5447
I1027
sS'feel'
p5448
I241
sS'fancy'
p5449
I3309
sS'traveled'
p5450
I2407
sS'feet'
p5451
I1730
sS'sympathy'
p5452
I5910
sS'notify'
p5453
I1814
sS'colombia'
p5454
I5247
sS'blank'
p5455
I4171
sS'traveler'
p5456
I1929
sS'passes'
p5457
I842
sS'story'
p5458
I1591
sS'"'
p5459
I122
sS'temperature'
p5460
I3552
sS'leading'
p5461
I5229
sS'comfy'
p5462
I1793
sS'hangs'
p5463
I4541
sS'storm'
p5464
I1351
sS'store'
p5465
I2413
sS'headache'
p5466
I5125
sS'$.'
p5467
I5124
sS'option'
p5468
I467
sS'relieved'
p5469
I5313
sS'$$'
p5470
I3258
sS'hotel'
p5471
I498
sS'luckily'
p5472
I3004
sS'transaction'
p5473
I3010
sS'convinced'
p5474
I5340
sS'kind'
p5475
I352
sS'double'
p5476
I1176
sS'instruction'
p5477
I4866
sS'outrageous'
p5478
I3522
sS'lanzarote'
p5479
I5872
sS'dang'
p5480
I4607
sS'7a'
p5481
I5963
sS'outstanding'
p5482
I1824
sS'7p'
p5483
I3546
sS'nights'
p5484
I3264
sS'end_id'
p5485
I6003
sS'port'
p5486
I3312
sS'sandwiches'
p5487
I4329
sS'finding'
p5488
I1532
sS'irritated'
p5489
I5364
sS'gill'
p5490
I4880
sS'777'
p5491
I1672
sS'added'
p5492
I1017
sS'electric'
p5493
I4997
sS'exec'
p5494
I1326
sS'inconvenience'
p5495
I189
sS'reach'
p5496
I447
sS'reunited'
p5497
I1218
sS'75'
p5498
I1457
sS'impacting'
p5499
I4242
sS'73'
p5500
I5486
sS'72'
p5501
I2605
sS'70'
p5502
I2536
sS'nothing'
p5503
I375
sS'windows'
p5504
I2940
sS'10am'
p5505
I2875
sS'notch'
p5506
I2980
sS'lying'
p5507
I3318
sS'cdg'
p5508
I1200
sS'journeys'
p5509
I5911
sS'fond'
p5510
I5445
sS'costing'
p5511
I3875
sS'bff'
p5512
I4825
sS'penalty'
p5513
I3549
sS'his'
p5514
I480
sS'hit'
p5515
I1601
sS'longest'
p5516
I3628
sS'reprint'
p5517
I4775
sS'emails'
p5518
I874
sS'budapest'
p5519
I3886
sS'luton'
p5520
I2167
sS'investigate'
p5521
I1587
sS'plse'
p5522
I4486
sS'activity'
p5523
I2978
sS'wrote'
p5524
I2734
sS'arr'
p5525
I5661
sS'55pm'
p5526
I5085
sS'art'
p5527
I5432
sS'dumb'
p5528
I4246
sS'are'
p5529
I17
sS'pvg'
p5530
I5341
sS'greece'
p5531
I4228
sS'arm'
p5532
I3767
sS'declined'
p5533
I5059
sS'various'
p5534
I3259
sS'emirates'
p5535
I1502
sS'numerous'
p5536
I3335
sS'cancelling'
p5537
I1590
sS'solo'
p5538
I4037
sS'korea'
p5539
I4542
sS'recently'
p5540
I1512
sS'creating'
p5541
I3187
sS'initially'
p5542
I4583
sS'sold'
p5543
I1463
sS'attention'
p5544
I1127
sS'bronze'
p5545
I3186
sS'c'
p5546
I821
sS'license'
p5547
I2677
sS']:'
p5548
I1220
sS'became'
p5549
I4157
sS'8am'
p5550
I2409
sS'finds'
p5551
I4105
sS'flies'
p5552
I2674
sS'flier'
p5553
I3114
sS'reasons'
p5554
I868
sS'sweet'
p5555
I1254
sS'epicfail'
p5556
I3274
sS'pr'
p5557
I3383
sS'ps'
p5558
I2981
sS'cheapest'
p5559
I3554
sS'pt'
p5560
I5862
sS'swa'
p5561
I1817
sS'dub'
p5562
I2115
sS'due'
p5563
I220
sS'pc'
p5564
I3134
sS'pa'
p5565
I3932
sS'pd'
p5566
I5160
sS'ph'
p5567
I4591
sS'whoa'
p5568
I5739
sS'woke'
p5569
I3892
sS'pm'
p5570
I902
sS'fights'
p5571
I5653
sS'flight'
p5572
I18
sS'buck'
p5573
I5639
sS'transferring'
p5574
I4317
sS'demand'
p5575
I2371
sS'rocking'
p5576
I5129
sS'stolen'
p5577
I2265
sS'sandiego'
p5578
I5785
sS'frozen'
p5579
I4103
sS'kick'
p5580
I3094
sS'behavior'
p5581
I2901
sS'unitedsucks'
p5582
I5612
sS'engineers'
p5583
I4980
sS'rip'
p5584
I3713
sS'disappointing'
p5585
I733
sS'rio'
p5586
I3047
sS'rid'
p5587
I4184
sS'ric'
p5588
I3762
sS'lengthy'
p5589
I3659
sS'shirt'
p5590
I4815
sS'9'
p5591
I537
sS'advise'
p5592
I374
sS'daughters'
p5593
I3365
sS'higher'
p5594
I1795
sS'arrives'
p5595
I2040
sS'holidays'
p5596
I850
sS'flown'
p5597
I843
sS'liquids'
p5598
I3448
sS'lower'
p5599
I1923
sS'anybody'
p5600
I3263
sS'433'
p5601
I895
sS'cheer'
p5602
I3817
sS'edge'
p5603
I5326
sS'stating'
p5604
I4096
sS'competitive'
p5605
I3941
sS'ignoring'
p5606
I3199
sS'questions'
p5607
I716
sS'immediately'
p5608
I1628
sS'retired'
p5609
I5908
sS'loading'
p5610
I2642
sS'tablet'
p5611
I3445
sS'workers'
p5612
I2526
sS'exclusively'
p5613
I5231
sS'reinstate'
p5614
I5583
sS'finder'
p5615
I4435
sS'complaint'
p5616
I414
sS'8224'
p5617
I1950
sS'674'
p5618
I4631
sS'unlimited'
p5619
I4842
sS'lost'
p5620
I219
sS'ignore'
p5621
I2886
sS'collect'
p5622
I1947
sS'nairobi'
p5623
I4441
sS'fucking'
p5624
I1998
sS'understood'
p5625
I2198
sS'wanderlust'
p5626
I5437
sS'absolutely'
p5627
I789
sS'meds'
p5628
I4698
sS'retro'
p5629
I4622
sS'prob'
p5630
I2747
sS'anna'
p5631
I2513
sS'orly'
p5632
I5659
sS'refused'
p5633
I1755
sS'refuses'
p5634
I3812
sS'completing'
p5635
I4185
sS'ordeal'
p5636
I5581
sS'range'
p5637
I4135
sS'complimentary'
p5638
I1171
sS'wanna'
p5639
I1515
sS'happycustomer'
p5640
I5316
sS'cutoff'
p5641
I5201
sS'sports'
p5642
I3668
sS'impressed'
p5643
I920
sS'rows'
p5644
I2238
sS'fluctuate'
p5645
I4739
sS'question'
p5646
I513
sS'fast'
p5647
I1010
sS'lasvegas'
p5648
I4309
sS'vienna'
p5649
I3622
sS'files'
p5650
I3829
sS'mountains'
p5651
I5538
sS'memory'
p5652
I5312
sS'repeatedly'
p5653
I4101
sS'filed'
p5654
I1063
sS'highlight'
p5655
I5845
sS'called'
p5656
I536
sS'southwestairlines'
p5657
I3028
sS'associated'
p5658
I2854
sS'warning'
p5659
I2717
sS'deltasucks'
p5660
I5945
sS'rainbow'
p5661
I5120
sS'rainy'
p5662
I5964
sS'gru'
p5663
I3998
sS'grr'
p5664
I4385
sS'peace'
p5665
I5304
sS'nice'
p5666
I277
sS'users'
p5667
I5147
sS'problems'
p5668
I646
sS'helping'
p5669
I819
sS'meaning'
p5670
I3366
sS'allowing'
p5671
I1924
sS'happier'
p5672
I4363
sS'gr8'
p5673
I3756
sS'departs'
p5674
I2145
sS'hoverboards'
p5675
I5667
sS'buffalo'
p5676
I3396
sS'once'
p5677
I321
sS'issued'
p5678
I1235
sS'edi'
p5679
I2130
sS'winds'
p5680
I4044
sS'issues'
p5681
I324
sS'shanghai'
p5682
I3610
sS'include'
p5683
I1366
sS'sq_social'
p5684
I2707
sS'confirmation'
p5685
I149
sS'wished'
p5686
I5938
sS'wishes'
p5687
I2842
sS'drinking'
p5688
I4582
sS'notes'
p5689
I3805
sS'deals'
p5690
I1323
sS'dealt'
p5691
I2296
sS'noted'
p5692
I2362
sS'someday'
p5693
I4917
sS'smaller'
p5694
I2663
sS'4322'
p5695
I4098
sS'traveling'
p5696
I497
sS'reunion'
p5697
I5211
sS'unavailable'
p5698
I2391
sS'bdl'
p5699
I3319
sS'19th'
p5700
I3952
sS'chose'
p5701
I2159
sS'degree'
p5702
I4982
sS'pushing'
p5703
I3464
sS'desired'
p5704
I3003
sS'explore'
p5705
I3881
sS'hkg'
p5706
I2756
sS'larger'
p5707
I3184
sS'oversold'
p5708
I2487
sS'leaving'
p5709
I620
sS'engine'
p5710
I2418
sS'apple'
p5711
I2112
sS'app'
p5712
I267
sS'api'
p5713
I3786
sS'apply'
p5714
I999
sS'fed'
p5715
I1913
sS'usd'
p5716
I3794
sS'feb'
p5717
I1989
sS'stream'
p5718
I3675
sS'usa'
p5719
I1550
sS'&'
p5720
I114
sS'few'
p5721
I520
sS'expanding'
p5722
I5476
sS'timetable'
p5723
I5946
sS'sort'
p5724
I989
sS'impress'
p5725
I3400
sS'women'
p5726
I2877
sS'7pm'
p5727
I3100
sS'anywhere'
p5728
I1484
sS'proof'
p5729
I2902
sS'tap'
p5730
I5826
sS'thirsty'
p5731
I5792
sS'tax'
p5732
I2408
sS'tad'
p5733
I5790
sS'tag'
p5734
I969
sS'something'
p5735
I390
sS'tab'
p5736
I4208
sS'flyingblue'
p5737
I4580
sS'sis'
p5738
I5145
sS'sir'
p5739
I3738
sS'united'
p5740
I695
sS'usair'
p5741
I2291
sS'sit'
p5742
I654
sS'six'
p5743
I1995
sS'inaugural'
p5744
I4807
sS'dxb'
p5745
I1979
sS'sia'
p5746
I5766
sS'carrier'
p5747
I1122
sS'instead'
p5748
I630
sS'toddler'
p5749
I3625
sS'panic'
p5750
I3911
sS'sin'
p5751
I2444
sS'attend'
p5752
I3582
sS'discomfort'
p5753
I2102
sS'airtravel'
p5754
I5419
sS'light'
p5755
I1829
sS'helpline'
p5756
I4295
sS'6hrs'
p5757
I4792
sS'honestly'
p5758
I2294
sS'irregularity'
p5759
I1605
sS'whilst'
p5760
I2631
sS'130'
p5761
I5237
sS'looks'
p5762
I396
sS'superior'
p5763
I4970
sS'permanent'
p5764
I5396
sS'choose'
p5765
I962
sS'orange'
p5766
I3720
sS'covered'
p5767
I2597
sS'bye'
p5768
I2596
sS'pending'
p5769
I2650
sS'flex'
p5770
I4597
sS'crash'
p5771
I5308
sS'paxs'
p5772
I4551
sS'practice'
p5773
I3174
sS'flew'
p5774
I693
sS'worlds'
p5775
I5490
sS'edit'
p5776
I5637
sS'promise'
p5777
I1661
sS'180'
p5778
I5016
sS'tray'
p5779
I3306
sS'related'
p5780
I1801
sS'88'
p5781
I5526
sS'89'
p5782
I2976
sS'our'
p5783
I30
sS'80'
p5784
I2140
sS'85'
p5785
I4387
sS'crashes'
p5786
I4872
sS'sentiment'
p5787
I5317
sS'chaos'
p5788
I2199
sS'integrated'
p5789
I5645
sS'45pm'
p5790
I3897
sS'ipod'
p5791
I5846
sS'8a'
p5792
I3235
sS'promptly'
p5793
I4183
sS'vacations'
p5794
I3228
sS'g'
p5795
I728
sS'conversation'
p5796
I2887
sS'4th'
p5797
I1797
sS'hence'
p5798
I3270
sS'ltn'
p5799
I5112
sS'destinations'
p5800
I1668
sS'unknown'
p5801
I5017
sS'50am'
p5802
I5503
sS'priority'
p5803
I519
sS'their'
p5804
I203
sS'1500'
p5805
I4442
sS'regards'
p5806
I656
sS'july'
p5807
I1009
sS'holland'
p5808
I4983
sS'boring'
p5809
I5888
sS'alerted'
p5810
I5851
sS'linked'
p5811
I3577
sS'afraid'
p5812
I662
sS'allergies'
p5813
I4517
sS'agency'
p5814
I2483
sS'which'
p5815
I285
sS'divert'
p5816
I4968
sS'='
p5817
I1078
sS'pretzels'
p5818
I3968
sS'centre'
p5819
I984
sS'who'
p5820
I268
sS'why'
p5821
I135
sS'deny'
p5822
I4492
sS'refreshing'
p5823
I4007
sS'looked'
p5824
I1161
sS'ho'
p5825
I4779
sS'chances'
p5826
I2433
sS'agreed'
p5827
I2754
sS'approx'
p5828
I3840
sS'planning'
p5829
I1436
sS'utter'
p5830
I4364
sS'fear'
p5831
I4003
sS'pleased'
p5832
I853
sS'highest'
p5833
I3563
sS'mumbai'
p5834
I3681
sS'cache'
p5835
I1747
sS'operational'
p5836
I1523
sS'dreamliner'
p5837
I1949
sS'thousands'
p5838
I3821
sS'watching'
p5839
I1531
sS'999'
p5840
I5151
sS'awww'
p5841
I3649
sS'ones'
p5842
I1232
sS'words'
p5843
I515
sS'chips'
p5844
I3261
sS'donate'
p5845
I5822
sS'married'
p5846
I2724
sS'qb'
p5847
I5499
sS'15th'
p5848
I3689
sS'queries'
p5849
I2958
sS'11am'
p5850
I3974
sS'view'
p5851
I629
sS'europe'
p5852
I1339
sS'requirement'
p5853
I4310
sS'cairns'
p5854
I5917
sS'closer'
p5855
I958
sS'closes'
p5856
I2810
sS'westjetconnect'
p5857
I5942
sS'closet'
p5858
I5162
sS'superb'
p5859
I2687
sS'favor'
p5860
I4040
sS'identification'
p5861
I4566
sS'closed'
p5862
I919
sS'limit'
p5863
I1596
sS'frustrated'
p5864
I975
sS'pants'
p5865
I4903
sS'weighing'
p5866
I4877
sS'ability'
p5867
I3065
sS'opening'
p5868
I2475
sS'joy'
p5869
I2761
sS'beverages'
p5870
I3660
sS'amex'
p5871
I1911
sS'job'
p5872
I591
sS'spoil'
p5873
I4416
sS'swift'
p5874
I4511
sS'april'
p5875
I5713
sS'safely'
p5876
I907
sS'unclear'
p5877
I4111
sS'wall'
p5878
I3977
sS'walk'
p5879
I1984
sS'respect'
p5880
I2056
sS'cxl'
p5881
I5800
sS'decent'
p5882
I2885
sS'responds'
p5883
I2415
sS'737'
p5884
I1681
sS'naples'
p5885
I3543
sS'liverpool'
p5886
I2746
sS'inbound'
p5887
I1468
sS'sufficient'
p5888
I4414
sS'crappy'
p5889
I2773
sS'hmm'
p5890
I1662
sS'improved'
p5891
I4059
sS'present'
p5892
I1776
sS'abandoned'
p5893
I5193
sS'unlike'
p5894
I4195
sS'choices'
p5895
I3033
sS'will'
p5896
I27
sS'stunning'
p5897
I3034
sS'antigua'
p5898
I5500
sS'wild'
p5899
I5805
sS'~'
p5900
I2656
sS'ringing'
p5901
I5359
sS'thus'
p5902
I2925
sS'perhaps'
p5903
I1099
sS'vintage'
p5904
I5927
sS'cross'
p5905
I2461
sS'member'
p5906
I452
sS'inch'
p5907
I5230
sS'gets'
p5908
I862
sS'incl'
p5909
I5852
sS'difficult'
p5910
I1240
sS'sincerest'
p5911
I2197
sS'promo'
p5912
I2000
sS'recline'
p5913
I2653
sS'student'
p5914
I2970
sS'approve'
p5915
I5829
sS'gutted'
p5916
I4823
sS'english'
p5917
I2300
sS'sensing'
p5918
I5282
sS'realised'
p5919
I4034
sS'excessive'
p5920
I5037
sS'obtain'
p5921
I3838
sS'batteries'
p5922
I3981
sS'rocked'
p5923
I5210
sS'happiness'
p5924
I5013
sS'2323'
p5925
I4611
sS'toilets'
p5926
I4740
sS'rapid'
p5927
I1370
sS'supply'
p5928
I3882
sS'sky'
p5929
I798
sS'hall'
p5930
I5093
sS'concourse'
p5931
I3844
sS'book'
p5932
I227
sS'expedite'
p5933
I3597
sS'ski'
p5934
I3395
sS'know'
p5935
I68
sS'press'
p5936
I3001
sS'iberia'
p5937
I2568
sS'helpful'
p5938
I474
sS'miami'
p5939
I786
sS'loses'
p5940
I4148
sS'exceed'
p5941
I3057
sS'because'
p5942
I258
sS'smoothly'
p5943
I1749
sS'scared'
p5944
I3752
sS'searching'
p5945
I2977
sS'110'
p5946
I3696
sS'leaf'
p5947
I5385
sS'lead'
p5948
I3157
sS'14th'
p5949
I4392
sS'leader'
p5950
I4723
sS'locate'
p5951
I1132
sS'ripped'
p5952
I3518
sS'fiumicino'
p5953
I5239
sS'rare'
p5954
I3329
sS'carried'
p5955
I2641
sS'extension'
p5956
I4882
sS'getting'
p5957
I228
sS'shipping'
p5958
I5690
sS'perks'
p5959
I2523
sS'swear'
p5960
I3852
sS'saddens'
p5961
I4543
sS'own'
p5962
I800
sS'owe'
p5963
I3181
sS'travelers'
p5964
I2042
sS'headphone'
p5965
I4899
sS'weather'
p5966
I317
sS'hotline'
p5967
I4560
sS'registration'
p5968
I5678
sS'eh'
p5969
I4123
sS'transfer'
p5970
I953
sS'*'
p5971
I204
sS'apps'
p5972
I3666
sS'kidding'
p5973
I2336
sS'intention'
p5974
I1571
sS'cairo'
p5975
I5555
sS'funds'
p5976
I2614
sS'volume'
p5977
I1698
sS'mailed'
p5978
I4498
sS'automated'
p5979
I2117
sS'nassau'
p5980
I5578
sS'made'
p5981
I248
sS'temp'
p5982
I4120
sS'whether'
p5983
I1685
sS'record'
p5984
I331
sS'below'
p5985
I2196
sS'infants'
p5986
I3101
sS'cmon'
p5987
I4353
sS'horrific'
p5988
I4302
sS'---'
p5989
I5837
sS'goodness'
p5990
I2941
sS'--&'
p5991
I2852
sS'incredible'
p5992
I2099
sS'15kg'
p5993
I4857
sS'boot'
p5994
I4921
sS'monitors'
p5995
I3650
sS'other'
p5996
I274
sS'sick'
p5997
I1764
sS'20min'
p5998
I4687
sS'incredibly'
p5999
I2173
sS'contacting'
p6000
I1100
sS'junk'
p6001
I3299
sS'kinds'
p6002
I4974
sS'june'
p6003
I4709
sS'frustrate'
p6004
I5008
sS'kinda'
p6005
I2744
sS'incurred'
p6006
I3606
sS'volumes'
p6007
I3379
ssS'idx2w'
p6008
(lp6009
g5239
ag3199
ag239
ag734
ag2225
ag1762
ag3066
ag1697
ag296
ag2306
ag2858
ag5323
ag2196
ag3231
ag2896
ag3843
ag5240
ag5529
ag5572
ag4324
ag3237
ag1976
ag940
ag3232
ag1921
ag680
ag1189
ag5896
ag5243
ag2046
ag5783
ag4000
ag4616
ag2925
ag1085
ag4702
ag1039
ag704
ag509
ag1768
ag4924
ag2971
ag1665
ag3242
ag1667
ag702
ag4119
ag4600
ag1821
ag698
ag4899
ag451
ag1070
ag3594
ag2524
ag4502
ag4888
ag5334
ag700
ag2315
ag358
ag4591
ag5255
ag5181
ag4999
ag1598
ag5418
ag5089
ag5935
ag148
ag1160
ag3266
ag5297
ag1978
ag4451
ag4530
ag3482
ag2608
ag4774
ag2663
ag935
ag2748
ag1187
ag2479
ag32
ag380
ag82
ag4901
ag2431
ag1084
ag3806
ag5247
ag2640
ag4982
ag1198
ag3168
ag788
ag4094
ag4859
ag2209
ag1243
ag2318
ag499
ag3322
ag535
ag1820
ag3751
ag3383
ag1965
ag279
ag323
ag1154
ag1252
ag94
ag5720
ag2778
ag5299
ag2084
ag2246
ag276
ag3876
ag3554
ag5459
ag2098
ag79
ag1334
ag1052
ag3244
ag1760
ag4789
ag1306
ag811
ag659
ag5372
ag1482
ag5821
ag3605
ag4273
ag4416
ag589
ag75
ag771
ag2751
ag363
ag5129
ag1062
ag3023
ag3431
ag1898
ag5685
ag4624
ag1301
ag3651
ag1590
ag2616
ag1128
ag5095
ag2081
ag3675
ag2994
ag3068
ag718
ag778
ag1568
ag4580
ag4662
ag1776
ag557
ag1577
ag206
ag1889
ag3521
ag5320
ag2894
ag101
ag836
ag3666
ag409
ag764
ag2536
ag282
ag4434
ag4664
ag3593
ag950
ag2062
ag1176
ag4682
ag3787
ag5495
ag3402
ag850
ag3000
ag4634
ag3978
ag240
ag4895
ag2612
ag413
ag3824
ag1589
ag921
ag3445
ag5804
ag5971
ag2384
ag4130
ag674
ag4728
ag4588
ag1622
ag1840
ag1803
ag3694
ag3458
ag4345
ag191
ag1846
ag1551
ag5620
ag5563
ag2021
ag5291
ag2210
ag4554
ag3040
ag3600
ag5932
ag5957
ag3276
ag3062
ag1817
ag2860
ag3173
ag3655
ag5024
ag4484
ag3838
ag1054
ag4596
ag5004
ag5448
ag3523
ag2520
ag2354
ag2039
ag2037
ag3718
ag5981
ag4667
ag893
ag2989
ag851
ag4262
ag571
ag1117
ag3862
ag625
ag5942
ag3972
ag5278
ag3764
ag2714
ag290
ag2079
ag3875
ag673
ag5712
ag5820
ag2041
ag4559
ag769
ag4115
ag3465
ag5996
ag396
ag8
ag5666
ag4675
ag4876
ag865
ag2996
ag66
ag2566
ag3442
ag5815
ag1089
ag5399
ag963
ag3855
ag3262
ag4034
ag3788
ag1847
ag5187
ag3671
ag4511
ag2602
ag1734
ag3277
ag293
ag5039
ag4279
ag399
ag3069
ag5011
ag5242
ag1118
ag689
ag1522
ag432
ag3670
ag5354
ag3317
ag744
ag3504
ag1558
ag5966
ag3814
ag3543
ag797
ag5677
ag1517
ag2727
ag5681
ag5178
ag1905
ag2975
ag1709
ag4478
ag1275
ag5984
ag953
ag4952
ag2350
ag1041
ag3028
ag3316
ag3264
ag1676
ag4618
ag843
ag3698
ag2001
ag4196
ag3746
ag2182
ag3629
ag2353
ag324
ag1939
ag1580
ag5475
ag3519
ag1470
ag1787
ag4884
ag3427
ag4339
ag3464
ag5017
ag4542
ag595
ag1080
ag1571
ag2941
ag852
ag2480
ag4287
ag822
ag4310
ag2374
ag840
ag4549
ag5592
ag5503
ag526
ag1916
ag3709
ag2930
ag3169
ag4408
ag336
ag2165
ag4707
ag3918
ag3896
ag248
ag5295
ag4225
ag5735
ag5196
ag3042
ag5142
ag4379
ag2120
ag5762
ag2297
ag442
ag2893
ag4636
ag4737
ag2128
ag5077
ag2020
ag4573
ag724
ag3951
ag3182
ag2680
ag4053
ag2713
ag54
ag1942
ag5616
ag4942
ag3864
ag587
ag2272
ag3440
ag2167
ag4117
ag431
ag2360
ag2459
ag3584
ag3868
ag1721
ag1262
ag3008
ag4009
ag1260
ag1789
ag5135
ag1108
ag3529
ag2584
ag398
ag504
ag5059
ag1661
ag1798
ag5401
ag3575
ag2458
ag3982
ag3546
ag5496
ag4929
ag1757
ag3434
ag3525
ag5906
ag3667
ag1459
ag943
ag4443
ag3509
ag873
ag4622
ag377
ag4758
ag3813
ag2183
ag3526
ag4140
ag4775
ag5468
ag1505
ag1774
ag1788
ag1527
ag1690
ag2284
ag5938
ag443
ag3353
ag3891
ag1688
ag2083
ag5514
ag1692
ag4108
ag4687
ag3650
ag4583
ag1984
ag1851
ag1951
ag2035
ag2493
ag4599
ag1880
ag2528
ag3634
ag5241
ag3441
ag5696
ag5471
ag3044
ag608
ag3146
ag136
ag2712
ag1663
ag2134
ag4854
ag1486
ag3639
ag983
ag5117
ag2028
ag2298
ag5646
ag4069
ag5843
ag4039
ag291
ag3545
ag5803
ag5721
ag3323
ag125
ag390
ag4965
ag3100
ag4172
ag981
ag3126
ag2227
ag1458
ag2676
ag2276
ag1429
ag1192
ag3071
ag5656
ag5591
ag3954
ag4081
ag1859
ag89
ag634
ag4916
ag4582
ag1753
ag3702
ag1912
ag2471
ag2358
ag1777
ag2558
ag4620
ag2840
ag2560
ag2436
ag2064
ag1294
ag515
ag3922
ag4334
ag4677
ag2352
ag4182
ag261
ag5311
ag4943
ag2424
ag3590
ag362
ag5433
ag4057
ag1027
ag200
ag1445
ag2282
ag5214
ag2365
ag1318
ag3854
ag2432
ag1884
ag4403
ag3050
ag3213
ag5057
ag3078
ag4509
ag2324
ag4017
ag691
ag5872
ag5137
ag2450
ag4544
ag4807
ag4087
ag1003
ag2367
ag1228
ag2121
ag4079
ag5208
ag5079
ag3376
ag2475
ag3932
ag828
ag3688
ag2152
ag626
ag3859
ag677
ag2330
ag4497
ag3468
ag150
ag4762
ag335
ag810
ag5709
ag3533
ag3518
ag4590
ag1104
ag3507
ag5167
ag3844
ag4525
ag5851
ag5748
ag1870
ag3014
ag1582
ag3512
ag3819
ag4653
ag2489
ag2495
ag4753
ag2703
ag3161
ag3396
ag2705
ag2126
ag2207
ag5668
ag3542
ag2004
ag2692
ag4925
ag107
ag1086
ag2891
ag5742
ag794
ag5806
ag3928
ag4563
ag2281
ag433
ag1212
ag5812
ag3048
ag205
ag2235
ag639
ag3235
ag1091
ag1941
ag5324
ag506
ag4858
ag2603
ag790
ag5293
ag4931
ag1369
ag2866
ag3513
ag4546
ag3652
ag1210
ag188
ag661
ag2100
ag4178
ag4835
ag2597
ag3076
ag4815
ag965
ag1412
ag5774
ag3585
ag5740
ag1811
ag913
ag3905
ag5138
ag2806
ag4726
ag3296
ag3240
ag3714
ag2418
ag2398
ag3451
ag4105
ag4995
ag4666
ag376
ag1415
ag4679
ag52
ag5227
ag5607
ag5001
ag2787
ag1530
ag2671
ag3320
ag1755
ag1152
ag800
ag481
ag2913
ag1166
ag5795
ag3583
ag3122
ag24
ag2949
ag5585
ag1869
ag1930
ag3077
ag226
ag181
ag1742
ag3897
ag3035
ag2972
ag2345
ag3971
ag40
ag3515
ag4597
ag511
ag2010
ag3937
ag1359
ag5403
ag86
ag5006
ag1593
ag3728
ag775
ag3388
ag520
ag534
ag643
ag4950
ag1548
ag1581
ag1529
ag3532
ag2349
ag2667
ag3812
ag932
ag1975
ag4940
ag2618
ag5397
ag3908
ag2643
ag1025
ag3413
ag2420
ag3324
ag2044
ag3064
ag4025
ag2813
ag5084
ag5939
ag720
ag763
ag5627
ag2704
ag3647
ag4820
ag486
ag4878
ag3304
ag2538
ag2148
ag5929
ag1067
ag5962
ag2919
ag3356
ag3350
ag804
ag4561
ag5122
ag1683
ag3473
ag784
ag277
ag4424
ag1441
ag3292
ag4327
ag3225
ag4257
ag35
ag475
ag5669
ag1716
ag5546
ag985
ag4849
ag4742
ag1584
ag1022
ag2049
ag244
ag3181
ag3207
ag3234
ag1918
ag3759
ag1973
ag2649
ag3841
ag995
ag2168
ag3341
ag731
ag1864
ag5457
ag5597
ag658
ag2440
ag327
ag3026
ag3929
ag304
ag5596
ag4793
ag1765
ag5832
ag4821
ag2792
ag1467
ag2952
ag4432
ag386
ag3740
ag1899
ag5908
ag2419
ag1218
ag4021
ag4179
ag5292
ag5554
ag747
ag3630
ag1484
ag868
ag1602
ag5518
ag5440
ag3367
ag2160
ag4159
ag3840
ag2446
ag309
ag4035
ag110
ag3300
ag1907
ag2732
ag3419
ag5392
ag5298
ag3780
ag3549
ag903
ag1137
ag3003
ag5601
ag7
ag3775
ag229
ag474
ag714
ag2381
ag5570
ag162
ag3125
ag1196
ag5250
ag5876
ag955
ag3486
ag3979
ag5344
ag1969
ag668
ag1311
ag4282
ag3916
ag3903
ag254
ag5862
ag5643
ag4892
ag529
ag4912
ag3301
ag907
ag4338
ag2051
ag2707
ag1372
ag1462
ag1575
ag3407
ag4337
ag5120
ag759
ag182
ag637
ag4330
ag2401
ag3711
ag3141
ag1743
ag1328
ag3547
ag524
ag461
ag946
ag3129
ag1901
ag3911
ag4988
ag4736
ag5970
ag4378
ag591
ag1915
ag809
ag5855
ag1167
ag414
ag3570
ag5765
ag4455
ag1183
ag4162
ag273
ag3027
ag1375
ag5734
ag3578
ag252
ag5168
ag1225
ag199
ag5864
ag3544
ag3847
ag132
ag1397
ag2774
ag4734
ag3573
ag3659
ag5819
ag3662
ag1270
ag1799
ag5384
ag5724
ag798
ag3481
ag776
ag2530
ag832
ag4448
ag2695
ag937
ag1110
ag5714
ag2838
ag4325
ag2266
ag3915
ag1635
ag4718
ag4431
ag3124
ag4412
ag5807
ag5647
ag2836
ag2483
ag4463
ag4645
ag2014
ag3506
ag5492
ag3310
ag2382
ag4619
ag2251
ag26
ag3467
ag4609
ag4756
ag3364
ag5447
ag4389
ag3355
ag417
ag3750
ag3677
ag4248
ag4778
ag1528
ag2805
ag3031
ag4951
ag4015
ag4199
ag2725
ag2162
ag5043
ag1958
ag2890
ag1437
ag4272
ag1738
ag4404
ag310
ag4252
ag2540
ag4360
ag792
ag4955
ag1808
ag4850
ag4415
ag2347
ag1396
ag394
ag2711
ag5654
ag2304
ag3115
ag2734
ag1043
ag1852
ag2203
ag3215
ag690
ag3551
ag111
ag2312
ag3233
ag4539
ag4672
ag5817
ag1220
ag4606
ag2981
ag3680
ag2614
ag2689
ag3056
ag1038
ag3990
ag4060
ag1826
ag154
ag1979
ag4047
ag2387
ag221
ag3238
ag1400
ag3776
ag2668
ag5903
ag6000
ag2771
ag1547
ag5309
ag1471
ag2635
ag2621
ag3623
ag4953
ag2899
ag15
ag2278
ag1249
ag1281
ag385
ag1502
ag372
ag4063
ag1097
ag251
ag96
ag4959
ag5747
ag158
ag2456
ag665
ag1996
ag5544
ag1675
ag4236
ag5430
ag2546
ag5951
ag5281
ag4796
ag793
ag4975
ag1162
ag356
ag4585
ag1518
ag2206
ag180
ag2455
ag3803
ag2473
ag4986
ag2164
ag2962
ag4322
ag1541
ag3955
ag2852
ag2199
ag4429
ag814
ag3335
ag3395
ag2569
ag1373
ag872
ag5824
ag4801
ag3409
ag1020
ag3059
ag3424
ag4766
ag915
ag2217
ag657
ag5638
ag2733
ag688
ag4658
ag3697
ag5476
ag4802
ag321
ag4144
ag2604
ag2386
ag5305
ag260
ag207
ag3448
ag4276
ag2040
ag3786
ag3260
ag223
ag2439
ag2982
ag4188
ag4763
ag652
ag1672
ag3380
ag1718
ag4782
ag5508
ag3582
ag3828
ag1296
ag2093
ag2250
ag4450
ag619
ag4971
ag3487
ag1550
ag5096
ag2088
ag3470
ag4226
ag175
ag2133
ag3158
ag5497
ag1649
ag5548
ag2144
ag5169
ag1230
ag4994
ag4781
ag3501
ag1614
ag2503
ag496
ag1739
ag83
ag5842
ag5046
ag3271
ag5678
ag50
ag753
ag301
ag3760
ag5910
ag2758
ag5284
ag1126
ag1509
ag3389
ag4890
ag4809
ag33
ag1591
ag3489
ag4615
ag3327
ag3503
ag5555
ag2491
ag1685
ag584
ag478
ag730
ag4538
ag2108
ag5162
ag4905
ag3861
ag3938
ag4500
ag2397
ag104
ag4293
ag4560
ag4292
ag2268
ag2101
ag1563
ag3774
ag1143
ag3899
ag1297
ag3869
ag2223
ag3870
ag3705
ag2061
ag3577
ag2188
ag3166
ag3660
ag3087
ag4380
ag5065
ag64
ag80
ag1464
ag4381
ag1666
ag4314
ag4947
ag1878
ag684
ag4934
ag2073
ag3850
ag1320
ag410
ag4107
ag3768
ag1011
ag1671
ag1342
ag3687
ag1018
ag331
ag3801
ag1023
ag910
ag3280
ag3520
ag2292
ag1370
ag806
ag4686
ag4869
ag5690
ag527
ag4316
ag5494
ag1758
ag4206
ag4333
ag516
ag341
ag2425
ag2620
ag2660
ag4406
ag5078
ag2069
ag1310
ag5852
ag4306
ag1100
ag2336
ag405
ag3082
ag987
ag2109
ag48
ag3871
ag5126
ag3772
ag5464
ag2740
ag2481
ag1701
ag4369
ag633
ag4829
ag522
ag3597
ag4143
ag2116
ag3058
ag2033
ag1657
ag3098
ag5683
ag4359
ag2868
ag215
ag5927
ag1440
ag666
ag3178
ag4167
ag1925
ag4813
ag3375
ag2025
ag483
ag1952
ag5381
ag4092
ag818
ag439
ag3663
ag2933
ag624
ag4132
ag4532
ag1106
ag614
ag1354
ag1134
ag3991
ag3036
ag6
ag3123
ag1307
ag5010
ag2987
ag2186
ag210
ag4103
ag255
ag3621
ag2831
ag555
ag172
ag1756
ag4625
ag2325
ag1501
ag964
ag2169
ag4050
ag4074
ag1828
ag3046
ag5144
ag1367
ag4317
ag1398
ag4313
ag696
ag570
ag2986
ag3230
ag3797
ag2669
ag2937
ag2311
ag4881
ag2679
ag3052
ag4221
ag5829
ag4628
ag1168
ag4516
ag1535
ag701
ag3164
ag1836
ag5070
ag4274
ag951
ag1360
ag2242
ag2856
ag2803
ag444
ag5136
ag2261
ag2406
ag498
ag1540
ag5498
ag419
ag3437
ag3443
ag4493
ag1351
ag5543
ag203
ag51
ag1063
ag739
ag5887
ag2130
ag76
ag4218
ag1770
ag3095
ag1383
ag57
ag565
ag284
ag4343
ag2059
ag560
ag1202
ag3343
ag655
ag5728
ag3329
ag1123
ag1488
ag2742
ag1129
ag2253
ag4978
ag4830
ag4385
ag4874
ag423
ag2410
ag5259
ag977
ag5038
ag4267
ag4873
ag5535
ag2807
ag3254
ag4068
ag546
ag2694
ag2770
ag2525
ag4023
ag1599
ag5540
ag3444
ag3550
ag5639
ag4770
ag1269
ag3461
ag3956
ag3552
ag3823
ag5104
ag5836
ag789
ag3033
ag1842
ag2781
ag3831
ag5371
ag1449
ag5839
ag5488
ag1277
ag5374
ag2322
ag2880
ag648
ag3312
ag4373
ag53
ag1812
ag3676
ag1876
ag5133
ag5166
ag712
ag2724
ag3496
ag5287
ag5719
ag22
ag3945
ag2639
ag3223
ag540
ag2385
ag2057
ag4086
ag458
ag1704
ag1056
ag4113
ag3313
ag4581
ag4475
ag1786
ag3228
ag4270
ag4388
ag4991
ag5974
ag4812
ag3608
ag4291
ag746
ag30
ag4535
ag2189
ag1293
ag9
ag168
ag109
ag796
ag4633
ag3299
ag5210
ag5521
ag871
ag2648
ag5537
ag5458
ag3987
ag3428
ag1586
ag863
ag5863
ag1350
ag3142
ag5367
ag1496
ag5515
ag1953
ag1860
ag3246
ag5759
ag4393
ag4031
ag3263
ag198
ag2943
ag2013
ag3403
ag4944
ag4698
ag4604
ag4842
ag4501
ag3397
ag956
ag919
ag1017
ag5376
ag1928
ag151
ag1205
ag1314
ag3856
ag5608
ag1028
ag5161
ag2366
ag1163
ag3785
ag911
ag2333
ag2414
ag5123
ag1645
ag945
ag2828
ag5157
ag2441
ag3596
ag402
ag979
ag5223
ag4603
ag2303
ag2319
ag375
ag1287
ag1981
ag4233
ag4897
ag609
ag3140
ag445
ag908
ag1015
ag4518
ag5777
ag5890
ag5060
ag1805
ag2348
ag3462
ag512
ag5800
ag572
ag397
ag3361
ag5491
ag3133
ag5152
ag1481
ag4710
ag1594
ag4477
ag5081
ag3631
ag5884
ag4070
ag2339
ag5361
ag5983
ag1430
ag2935
ag3135
ag2156
ag4651
ag4920
ag4165
ag467
ag1178
ag4520
ag3259
ag4783
ag5977
ag4914
ag825
ag4344
ag5338
ag3912
ag1658
ag1428
ag1434
ag1150
ag2197
ag4342
ag5094
ag332
ag1222
ag5016
ag772
ag1427
ag2969
ag2979
ag4297
ag1559
ag849
ag989
ag5058
ag3278
ag1897
ag4867
ag866
ag1066
ag1466
ag450
ag5451
ag3901
ag2149
ag654
ag4601
ag2043
ag2908
ag4684
ag289
ag1815
ag723
ag1741
ag1077
ag3270
ag1158
ag316
ag3669
ag5835
ag2821
ag5943
ag2285
ag3043
ag283
ag5206
ag4919
ag5633
ag3049
ag3430
ag3632
ag891
ag4180
ag2691
ag568
ag5317
ag5997
ag1858
ag841
ag3261
ag2300
ag5296
ag4863
ag2286
ag4018
ag2036
ag1546
ag99
ag5892
ag2404
ag1208
ag1323
ag68
ag235
ag1670
ag5176
ag1725
ag1759
ag2411
ag2096
ag876
ag2290
ag4020
ag5199
ag4659
ag5462
ag3731
ag5594
ag4331
ag5797
ag1247
ag1570
ag1071
ag5780
ag4479
ag1637
ag3933
ag887
ag598
ag1900
ag179
ag3037
ag1356
ag300
ag5012
ag2177
ag5453
ag5319
ag2521
ag5561
ag1338
ag4386
ag4566
ag2499
ag5074
ag3769
ag5482
ag2548
ag4660
ag895
ag4181
ag5755
ag998
ag3148
ag1964
ag4879
ag5277
ag4811
ag4930
ag1961
ag1325
ag395
ag3873
ag5072
ag2166
ag3860
ag1729
ag3934
ag5209
ag1291
ag3829
ag1144
ag3325
ag3832
ag3536
ag2118
ag446
ag3866
ag4732
ag3703
ag779
ag4195
ag2370
ag3391
ag1735
ag3018
ag1031
ag2744
ag4650
ag39
ag766
ag270
ag2263
ag4469
ag974
ag1827
ag16
ag958
ag3415
ag4993
ag4755
ag492
ag3499
ag1715
ag942
ag715
ag477
ag2677
ag448
ag447
ag3696
ag4703
ag129
ag4987
ag2664
ag2879
ag1172
ag1284
ag607
ag5147
ag3777
ag3186
ag171
ag1279
ag5217
ag18
ag3874
ag3867
ag4152
ag4174
ag3032
ag1184
ag4219
ag5871
ag437
ag5715
ag1352
ag2915
ag4826
ag1694
ag5383
ag4894
ag415
ag4787
ag3644
ag5599
ag5671
ag899
ag4428
ag2577
ag4936
ag5456
ag2812
ag46
ag4061
ag4052
ag949
ag3198
ag5172
ag2956
ag1728
ag4243
ag1751
ag268
ag1724
ag2470
ag2759
ag3275
ag3491
ag5622
ag2332
ag5837
ag5617
ag4598
ag2722
ag1990
ag5188
ag5308
ag4027
ag2067
ag3176
ag5432
ag3436
ag2761
ag128
ag2738
ag4289
ag4871
ag3561
ag4118
ag4008
ag4399
ag3820
ag4203
ag1887
ag1888
ag1818
ag1634
ag1469
ag3274
ag4967
ag5745
ag140
ag1659
ag1940
ag5108
ag5879
ag4843
ag436
ag870
ag1094
ag5717
ag3654
ag4198
ag1712
ag3247
ag120
ag5743
ag2009
ag1465
ag5624
ag1051
ag5912
ag1800
ag2110
ag4026
ag2633
ag3373
ag2280
ag5002
ag2158
ag4112
ag2388
ag213
ag4328
ag1474
ag2045
ag1107
ag3562
ag2537
ag2063
ag225
ag116
ag2464
ag5068
ag777
ag3255
ag184
ag3063
ag1366
ag49
ag418
ag3839
ag2289
ag4904
ag1133
ag2864
ag4177
ag5336
ag4847
ag4491
ag2773
ag5595
ag5113
ag5964
ag1607
ag892
ag3986
ag3975
ag4644
ag2153
ag2190
ag4156
ag278
ag2279
ag4754
ag3483
ag2795
ag5880
ag4602
ag576
ag5102
ag4235
ag803
ag5412
ag2869
ag2655
ag3359
ag1012
ag3693
ag4906
ag5264
ag5393
ag2050
ag2422
ag3935
ag1159
ag1853
ag117
ag4307
ag618
ag2884
ag767
ag4054
ag5218
ag454
ag5164
ag4449
ag361
ag914
ag2139
ag2291
ag4941
ag4437
ag1423
ag5141
ag1977
ag3569
ag2929
ag156
ag1499
ag5992
ag2137
ag5409
ag5753
ag805
ag495
ag3453
ag5112
ag912
ag693
ag3368
ag441
ag1861
ag5711
ag4461
ag2777
ag5562
ag681
ag5979
ag427
ag2917
ag3865
ag3478
ag3136
ag103
ag2965
ag3034
ag3904
ag4948
ag3809
ag3858
ag5679
ag196
ag5279
ag5009
ag4488
ag1841
ag1963
ag3568
ag3349
ag2024
ag5784
ag5330
ag5396
ag2249
ag3162
ag5674
ag881
ag5139
ag3326
ag1122
ag3128
ag456
ag1829
ag692
ag1361
ag4352
ag5365
ag1513
ag3898
ag5701
ag819
ag5212
ag204
ag5258
ag303
ag317
ag709
ag5520
ag4557
ag1485
ag1506
ag1174
ag1384
ag5999
ag1903
ag4355
ag1886
ag4102
ag4093
ag2071
ag4928
ag166
ag787
ag1343
ag1879
ag906
ag4244
ag3976
ag25
ag3469
ag4372
ag757
ag3560
ag408
ag541
ag256
ag5985
ag5911
ag5625
ag5788
ag3492
ag1420
ag484
ag2305
ag585
ag2368
ag378
ag1278
ag1435
ag1891
ag497
ag135
ag3204
ag1035
ag4366
ag1395
ag5091
ag4996
ag3390
ag2369
ag2296
ag3821
ag5274
ag2553
ag4418
ag3165
ag2085
ag594
ag3127
ag4886
ag2435
ag4420
ag705
ag1419
ag231
ag1727
ag1855
ag667
ag5644
ag4384
ag3474
ag4647
ag1385
ag4889
ag1980
ag3224
ag897
ag5150
ag3893
ag122
ag4513
ag2342
ag3641
ag1112
ag1819
ag36
ag1564
ag3964
ag3567
ag2517
ag5109
ag4281
ag2486
ag780
ag854
ag5577
ag5352
ag1752
ag4256
ag190
ag1521
ag2634
ag4552
ag831
ag4041
ag4697
ag1078
ag4387
ag1957
ag2510
ag4263
ag1627
ag5350
ag3432
ag4612
ag2693
ag5020
ag1695
ag3749
ag2363
ag233
ag5741
ag1731
ag603
ag5758
ag5035
ag5691
ag3627
ag4853
ag3097
ag5917
ag968
ag5201
ag645
ag3894
ag1639
ag1574
ag694
ag44
ag5100
ag1329
ag2211
ag3612
ag3372
ag947
ag972
ag3957
ag4689
ag664
ag3331
ag1380
ag1732
ag3658
ag5140
ag4747
ag2601
ag1127
ag1009
ag2763
ag3642
ag3171
ag2873
ag1698
ag3607
ag4010
ag4627
ag5973
ag862
ag2595
ag3925
ag5362
ag1239
ag2902
ag2271
ag1258
ag3001
ag340
ag124
ag242
ag4823
ag3060
ag1065
ag462
ag4962
ag4085
ag1271
ag1442
ag729
ag1346
ag1802
ag2498
ag5358
ag5692
ag4785
ag393
ag55
ag909
ag3357
ag2624
ag859
ag536
ag5575
ag2074
ag1677
ag2314
ag426
ag311
ag3633
ag4043
ag262
ag3346
ag176
ag2055
ag1946
ag3293
ag2911
ag3345
ag1573
ag3459
ag2373
ag4046
ag5698
ag5105
ag3535
ag1487
ag4481
ag2178
ag4001
ag801
ag1261
ag5031
ag2150
ag5080
ag4275
ag3884
ag1374
ag3416
ag5450
ag5732
ag5550
ag2767
ag326
ag3602
ag5465
ag1857
ag5883
ag4096
ag2204
ag5710
ag4269
ag808
ag1105
ag2815
ag5370
ag2008
ag2575
ag438
ag4932
ag5184
ag682
ag1050
ag4149
ag2376
ag5826
ag236
ag2293
ag3315
ag4977
ag1365
ag632
ag1617
ag348
ag2999
ag4173
ag5751
ag4777
ag3779
ag5044
ag2863
ag3256
ag1114
ag272
ag5121
ag4258
ag2682
ag5056
ag359
ag4973
ag826
ag1101
ag5048
ag5905
ag457
ag1061
ag663
ag1606
ag2665
ag4673
ag5343
ag4045
ag2931
ag3187
ag1943
ag1873
ag2449
ag5868
ag1034
ag1319
ag3959
ag3793
ag4336
ag3571
ag3683
ag5814
ag2743
ag2413
ag1190
ag5708
ag5026
ag2262
ag2375
ag3906
ag2793
ag2954
ag3188
ag3454
ag1232
ag5237
ag2026
ag627
ag153
ag3753
ag2750
ag1069
ag3314
ag1794
ag3308
ag3767
ag3220
ag1204
ag3516
ag5406
ag5366
ag5631
ag4556
ag2953
ag2327
ag2002
ag202
ag3488
ag113
ag848
ag1245
ag5959
ag5414
ag2976
ag5612
ag590
ag774
ag2273
ag71
ag4640
ag4353
ag403
ag1538
ag2482
ag5502
ag1029
ag2463
ag1954
ag212
ag2564
ag1795
ag1822
ag1781
ag2626
ag1955
ag2606
ag1336
ag5213
ag4030
ag4963
ag3011
ag2423
ag1257
ag4006
ag4524
ag4413
ag5417
ag249
ag2516
ag2102
ag3920
ag3051
ag4474
ag3212
ag581
ag5238
ag5937
ag3378
ag4805
ag3635
ag1394
ag3253
ag3192
ag3910
ag812
ag2563
ag1344
ag56
ag3626
ag2570
ag3283
ag1473
ag2027
ag4425
ag4004
ag1615
ag4422
ag2625
ag2613
ag3960
ag4720
ag2003
ag4933
ag3883
ag5768
ag5767
ag1326
ag2947
ag3309
ag3500
ag322
ag2377
ag1057
ag5501
ag5341
ag2344
ag5171
ag1605
ag3773
ag918
ag1610
ag1494
ag5976
ag1491
ag4255
ag119
ag1263
ag4231
ag2970
ag3572
ag1185
ag1804
ag3226
ag2752
ag2657
ag1997
ag2547
ag2995
ag126
ag5760
ag4519
ag1308
ag900
ag3992
ag2978
ag2909
ag5073
ag4528
ag3591
ag5955
ag5610
ag1687
ag1576
ag5302
ag337
ag4303
ag2437
ag4864
ag5769
ag351
ag3684
ag5913
ag63
ag3999
ag5900
ag4972
ag4349
ag2174
ag1253
ag1388
ag1920
ag5694
ag4122
ag3184
ag1525
ag4452
ag3970
ag889
ag2122
ag4402
ag3977
ag4286
ag5552
ag4394
ag4022
ag5547
ag3114
ag485
ag3628
ag952
ag1288
ag3722
ag1073
ag4804
ag5405
ag5859
ag4071
ag559
ag3522
ag5251
ag2052
ag4553
ag4980
ag755
ag4614
ag3624
ag2467
ag4099
ag4918
ag3414
ag2252
ag1557
ag5420
ag5134
ag306
ag5684
ag3379
ag5013
ag1998
ag2267
ag4362
ag3096
ag2371
ag2042
ag2598
ag5659
ag3206
ag2958
ag1339
ag2012
ag3138
ag3404
ag5846
ag687
ag1116
ag4120
ag721
ag2887
ag170
ag4540
ag884
ag1917
ag5524
ag5055
ag1182
ag1141
ag2184
ag4110
ag1102
ag4547
ag2853
ag69
ag6005
ag43
ag5886
ag5630
ag3661
ag4641
ag2496
ag5128
ag2832
ag3490
ag5827
ag1402
ag5706
ag5075
ag3885
ag1780
ag5023
ag5869
ag1904
ag1603
ag4558
ag4740
ag464
ag1624
ag4691
ag2066
ag3210
ag860
ag3297
ag5889
ag5032
ag339
ag3227
ag858
ag2214
ag3435
ag2765
ag3269
ag2889
ag3919
ag1680
ag1460
ag333
ag3183
ag81
ag922
ag4917
ag2243
ag1567
ag5163
ag1335
ag1778
ag1285
ag2811
ag2966
ag3328
ag1791
ag4014
ag2531
ag3305
ag3900
ag3537
ag84
ag3653
ag2706
ag4075
ag5856
ag5097
ag1392
ag711
ag2782
ag1932
ag4194
ag4638
ag3872
ag561
ag1669
ag3216
ag2650
ag1988
ag3778
ag1157
ag3400
ag4761
ag3282
ag4473
ag2628
ag4570
ag227
ag1079
ag1124
ag45
ag3002
ag4341
ag2478
ag3075
ag2240
ag4617
ag5687
ag5249
ag3291
ag1647
ag1136
ag2585
ag3782
ag2430
ag2146
ag3747
ag5991
ag2015
ag5658
ag1543
ag2355
ag2940
ag5051
ag1754
ag2395
ag3196
ag3344
ag1923
ag428
ag1585
ag2006
ag3995
ag344
ag4232
ag58
ag1164
ag500
ag5421
ag4545
ag5505
ag5329
ag5726
ag384
ag62
ag1417
ag4680
ag2104
ag988
ag3510
ag5882
ag5621
ag5796
ag1422
ag2343
ag297
ag813
ag3909
ag1452
ag183
ag2030
ag3730
ag1426
ag1072
ag2798
ag5189
ag5581
ag5729
ag2277
ag2417
ag3170
ag4204
ag2453
ag281
ag3132
ag3589
ag3211
ag717
ag389
ag1379
ag5185
ag2501
ag827
ag1654
ag4440
ag1834
ag5363
ag4251
ag1044
ag3410
ag5902
ag1446
ag4652
ag1241
ag4626
ag706
ag5067
ag1004
ag1401
ag2673
ag4657
ag1875
ag1147
ag1534
ag4184
ag5504
ag5990
ag3563
ag1378
ag2258
ag2507
ag4517
ag87
ag3007
ag4887
ag2484
ag2600
ag2862
ag4104
ag4126
ag3564
ag4351
ag5215
ag5849
ag3160
ag4800
ag1643
ag3796
ag3613
ag2788
ag4765
ag4423
ag3398
ag501
ag1737
ag5914
ag4214
ag264
ag1968
ag2468
ag1823
ag5782
ag5945
ag5523
ag5037
ag5506
ag5558
ag121
ag2465
ag1135
ag3586
ag1730
ag3386
ag1832
ag412
ag4727
ag2114
ag3179
ag2452
ag1583
ag980
ag4464
ag5064
ag2259
ag4496
ag5271
ag5936
ag5041
ag5704
ag5472
ag649
ag931
ag5131
ag762
ag1021
ag5473
ag4305
ag3219
ag4512
ag3088
ag5321
ag1477
ag1432
ag2582
ag877
ag4150
ag4903
ag3167
ag3907
ag4091
ag77
ag1982
ag4731
ag5657
ag3927
ag5378
ag4744
ag1024
ag5895
ag5897
ag347
ag4771
ag4321
ag2048
ag2883
ag4249
ag2984
ag3012
ag4370
ag238
ag4486
ag4578
ag5586
ag1630
ag4772
ag37
ag145
ag5318
ag5124
ag2938
ag4005
ag5351
ag5941
ag1058
ag611
ag4985
ag5045
ag845
ag3119
ag1181
ag5867
ag3108
ag3150
ag1560
ag263
ag1221
ag4216
ag3834
ag471
ag4569
ag1186
ag3756
ag3377
ag2878
ag1207
ag1733
ag1987
ag5385
ag3371
ag4396
ag5202
ag975
ag1696
ag245
ag1300
ag3493
ag3620
ag3151
ag844
ag5580
ag2772
ag4938
ag2690
ag3024
ag3070
ag5727
ag5986
ag4776
ag4346
ag823
ag271
ag1448
ag3609
ag1272
ag833
ag3665
ag3190
ag5156
ag5328
ag5553
ag287
ag2622
ag1076
ag1881
ag3815
ag2264
ag3973
ag3457
ag4465
ag2877
ag2826
ag3351
ag2070
ag4441
ag2316
ag3941
ag3475
ag552
ag3163
ag5564
ag2993
ag5327
ag480
ag97
ag2295
ag1315
ag2610
ag5391
ag4954
ag1125
ag3691
ag4779
ag4064
ag173
ag514
ag232
ag629
ag2154
ag3339
ag4705
ag1783
ag5110
ag5948
ag2127
ag3194
ag1155
ag1600
ag523
ag1579
ag1524
ag2396
ag3360
ag4193
ag5076
ag1341
ag3117
ag617
ag551
ag2685
ag5773
ag4439
ag3370
ag4514
ag1014
ag3984
ag3880
ag5963
ag1626
ag5310
ag5707
ag2686
ag5545
ag5541
ag2578
ag3816
ag1708
ag3222
ag1966
ag4937
ag1967
ag5127
ag5145
ag3502
ag1507
ag5606
ag2494
ag5252
ag3810
ag3239
ag628
ag4340
ag4462
ag4312
ag1552
ag4065
ag115
ag365
ag1850
ag1439
ag3086
ag4862
ag4506
ag1283
ag577
ag78
ag3646
ag5231
ag1813
ag1194
ag2075
ag1234
ag4301
ag4725
ag5794
ag4348
ag133
ag3111
ag4002
ag3456
ag4541
ag5792
ag4363
ag3968
ag4694
ag1950
ag2674
ag3913
ag2551
ag4870
ag3494
ag3811
ag5285
ag2400
ag761
ag4259
ag1121
ag2642
ag1825
ag4584
ag2523
ag3294
ag5356
ag1914
ag5470
ag5534
ag2310
ag5844
ag1972
ag5600
ag5484
ag4141
ag2741
ag5307
ag4861
ag5198
ag5798
ag4237
ag683
ag933
ag5556
ag1358
ag2505
ag411
ag5438
ag4398
ag4175
ag4780
ag3330
ag5270
ag381
ag288
ag3649
ag3748
ag13
ag194
ag4900
ag3084
ag3057
ag187
ag925
ag847
ag3218
ag4356
ag1989
ag6001
ag1545
ag5226
ag1191
ag650
ag1042
ag3405
ag5779
ag1631
ag4125
ag5449
ag1748
ag4145
ag5486
ag1180
ag420
ag4595
ag421
ag2393
ag5507
ag5699
ag3996
ag4855
ag926
ag3268
ag2534
ag3485
ag2589
ag5204
ag1516
ag5954
ag885
ag473
ag3737
ag2509
ag5322
ag5536
ag1532
ag901
ag1642
ag4701
ag1363
ag3716
ag5331
ag5186
ag1433
ag1240
ag1223
ag4097
ag802
ag3736
ag4893
ag2444
ag2847
ag3025
ag2918
ag5130
ag4926
ag592
ag2701
ag3505
ag1511
ag4302
ag2359
ag4712
ag2157
ag5593
ag5670
ag5400
ag1113
ag1883
ag2191
ag2287
ag4922
ag5069
ag5175
ag1213
ag2820
ag1007
ag5269
ag6007
ag388
ag4735
ag2515
ag5557
ag1371
ag4713
ag3092
ag4460
ag4571
ag4784
ag1266
ag5155
ag622
ag4133
ag1153
ag5934
ag5676
ag580
ag334
ag758
ag5725
ag280
ag894
ag1200
ag2341
ag4913
ag549
ag3417
ag3724
ag2945
ag416
ag3738
ag5082
ag2924
ag4693
ag3514
ag4442
ag3004
ag3719
ag4084
ag4200
ag1944
ag3013
ag4574
ag4032
ag5313
ag2662
ag669
ag4695
ag1706
ag5234
ag4037
ag2814
ag2950
ag1514
ag4229
ag352
ag545
ag2187
ag4447
ag1911
ag4607
ag1001
ag1835
ag1120
ag5611
ag3581
ag503
ag5598
ag1636
ag835
ag2607
ag1060
ag4073
ag328
ag307
ag3055
ag2307
ag2383
ag2256
ag2592
ag1504
ag354
ag5229
ag5703
ag4537
ag5053
ag3208
ag4192
ag2275
ag379
ag4142
ag2380
ag846
ag3085
ag1640
ag3826
ag4260
ag4176
ag3914
ag875
ag141
ag4572
ag4534
ag1775
ag2656
ag5280
ag4990
ag1664
ag2588
ag2172
ag275
ag3672
ag1867
ag890
ag3105
ag482
ag938
ag4885
ag2681
ag2402
ag2485
ag3921
ag4639
ag3725
ag3958
ag4767
ag90
ag2593
ag4029
ag14
ag2200
ag2462
ag1264
ag1894
ag2783
ag5304
ag2823
ag5952
ag5061
ag4814
ag2632
ag5478
ag488
ag3712
ag2047
ag3802
ag3625
ag74
ag824
ag4066
ag3054
ag4769
ag4392
ag4271
ag2961
ag2091
ag383
ag4368
ag1948
ag1399
ag2904
ag928
ag5885
ag2586
ag1771
ag5483
ag1453
ag4222
ag5513
ag257
ag1090
ag5460
ag713
ag5559
ag4326
ag5435
ag4078
ag2399
ag1413
ag3067
ag2977
ag3250
ag5833
ag2335
ag5260
ag638
ag3399
ag1242
ag2000
ag3700
ag839
ag1565
ag3406
ag2549
ag216
ag4946
ag5811
ag4264
ag1173
ag4678
ag1333
ag5752
ag3743
ag1956
ag1087
ag4036
ag5413
ag2973
ag563
ag1138
ag4350
ag1424
ag4526
ag1454
ag5348
ag4191
ag5933
ag2115
ag3083
ag2416
ag228
ag1393
ag3279
ag3592
ag4521
ag6006
ag3939
ag1201
ag647
ag5682
ag5151
ag1679
ag2907
ag4808
ag3365
ag4685
ag2219
ag3197
ag960
ag2731
ag3678
ag5649
ag2739
ag3784
ag5749
ag2683
ag3699
ag5516
ag3836
ag5165
ag2434
ag357
ag4669
ag4319
ag2865
ag4277
ag4827
ag4949
ag4160
ag1376
ag593
ag1244
ag1705
ag4841
ag4621
ag2688
ag556
ag4186
ag5841
ag5995
ag4974
ag597
ag1633
ag3967
ag269
ag1302
ag1710
ag610
ag5589
ag5870
ag3267
ag3477
ag2698
ag177
ag1862
ag5972
ag3729
ag5642
ag3497
ag2675
ag2239
ag3472
ag5008
ag5245
ag5718
ag1103
ag5437
ag3648
ag2955
ag1236
ag5834
ag2034
ag2097
ag3645
ag3102
ag1793
ag2910
ag4138
ag5848
ag5146
ag3021
ag61
ag1893
ag2294
ag864
ag5946
ag4795
ag2201
ag3617
ag4158
ag4741
ag1597
ag5429
ag735
ag2903
ag4692
ag1405
ag1874
ag4114
ag2018
ag5211
ag4197
ag5584
ag3295
ag4391
ag3837
ag5086
ag773
ag4210
ag5766
ag1140
ag3285
ag1843
ag2407
ag4128
ag2362
ag2646
ag3385
ag733
ag2988
ag3852
ag1519
ag1403
ag3205
ag3381
ag2060
ag302
ag5739
ag3369
ag98
ag2226
ag4759
ag1188
ag1556
ag2762
ag435
ag4915
ag157
ag3112
ag4646
ag5386
ag5944
ag2233
ag2848
ag5132
ag5673
ag1324
ag20
ag1248
ag4468
ag3857
ag5588
ag4224
ag2254
ag4246
ag1796
ag5532
ag364
ag1139
ag1717
ag1280
ag2895
ag3830
ag2605
ag3159
ag1909
ag1357
ag2661
ag5312
ag4254
ag3153
ag4058
ag4135
ag5394
ag2567
ag5713
ag123
ag5221
ag1109
ag234
ag1193
ag750
ag2129
ag5716
ag2872
ag1926
ag369
ag95
ag1362
ag4410
ag85
ag5337
ag2974
ag3152
ag5689
ag1613
ag2760
ag621
ag1273
ag4642
ag791
ag5634
ag4748
ag2173
ag3449
ag434
ag5602
ag130
ag3727
ag3755
ag5838
ag11
ag4215
ag2851
ag3766
ag3754
ag5088
ag1503
ag5650
ag727
ag1801
ag455
ag2565
ag429
ag1790
ag525
ag3185
ag5921
ag749
ag5828
ag1299
ag2658
ag4833
ag5931
ag3993
ag2850
ag4266
ag3362
ag2888
ag209
ag3833
ag5960
ag3752
ag330
ag1008
ag197
ag167
ag2472
ag2476
ag1608
ag349
ag2123
ag1807
ag4729
ag3917
ag1764
ag2697
ag2058
ag3792
ag2644
ag1526
ag5027
ag2573
ag2963
ag5511
ag4076
ag1959
ag2180
ag3638
ag3720
ag5705
ag5928
ag3180
ag1479
ag3770
ag5519
ag489
ag2245
ag67
ag5301
ag5029
ag5569
ag3189
ag5177
ag4208
ag4543
ag5790
ag2408
ag138
ag490
ag2964
ag2308
ag1045
ag4723
ag5239
ag4989
ag5194
ag4568
ag4471
ag4427
ag5750
ag742
ag5427
ag3484
ag3966
ag2867
ag1455
ag4309
ag3758
ag2934
ag2080
ag954
ag4834
ag4907
ag2932
ag4148
ag2552
ag521
ag2412
ag2539
ag2409
ag5565
ag4101
ag1871
ag3418
ag3438
ag3251
ag3029
ag4433
ag4419
ag5605
ag4038
ag3229
ag2854
ag3252
ag2302
ag3109
ag1013
ag2143
ag695
ag3553
ag5700
ag2825
ag1619
ag1693
ag4169
ag1267
ag4891
ag1304
ag5160
ag861
ag2346
ag487
ag2228
ag3682
ag4927
ag4505
ag5818
ag2641
ag4655
ag1512
ag2766
ag3817
ag5850
ag114
ag888
ag5878
ag2779
ag2870
ag4998
ag5922
ag2967
ag4365
ag2099
ag1165
ag882
ag2717
ag3690
ag2426
ag4868
ag751
ag1736
ag2861
ag538
ag5119
ag2599
ag247
ag5663
ag222
ag2849
ag1931
ag3588
ag5831
ag1382
ag642
ag2859
ag5823
ag3352
ag5316
ag4877
ag1064
ag2198
ag635
ag1720
ag2269
ag2914
ag3091
ag966
ag3080
ag3374
ag3248
ag4187
ag4752
ag100
ag3243
ag3393
ag5107
ag211
ag1792
ag1483
ag165
ag2892
ag4028
ag5919
ag3195
ag5233
ag5538
ag2647
ag2845
ag5860
ag325
ag4822
ag5115
ag5680
ag2195
ag1408
ag1033
ag3005
ag5419
ag3707
ag466
ag3337
ag1644
ag1000
ag5441
ag765
ag424
ag2857
ag5891
ag640
ag159
ag4522
ag4527
ag2736
ag1238
ag1562
ag3038
ag2799
ag2161
ag5042
ag106
ag1745
ag3287
ag2844
ag3994
ag494
ag2720
ag5190
ag1766
ag533
ag3789
ag820
ag4250
ag3531
ag4908
ag1005
ag586
ag799
ag4529
ag934
ag2487
ag2313
ag2038
ag459
ag4375
ag5604
ag1450
ag5695
ag343
ag2113
ag5653
ag3637
ag5579
ag1088
ag5551
ag370
ag4983
ag3284
ag719
ag996
ag5877
ag3723
ag2224
ag5230
ag3426
ag4059
ag5426
ag653
ag387
ag5982
ag4480
ag1472
ag5969
ag2138
ag5272
ag4157
ag1933
ag716
ag5294
ag3290
ag2451
ag3888
ag4377
ag4088
ag5637
ag3726
ag4163
ag4414
ag4743
ag3997
ag3849
ag5357
ag2746
ag543
ag4492
ag782
ag2559
ag5940
ag219
ag1282
ag1227
ag1895
ag2078
ag4649
ag5411
ag3616
ag5549
ag4228
ag1699
ag2274
ag5228
ag1686
ag266
ag566
ag1913
ag3045
ag3202
ag4860
ag5246
ag285
ag5455
ag904
ag3771
ag2817
ag2921
ag3877
ag3538
ag2504
ag4136
ag4242
ag708
ag4358
ag5793
ag5587
ag5635
ag4376
ag3471
ag3804
ag4147
ag4033
ag5192
ag1985
ag1877
ag3318
ag5894
ag2257
ag3020
ag4837
ag3030
ag3447
ag1268
ag2980
ag1986
ag4123
ag5355
ag3017
ag4453
ag5736
ag2155
ag4589
ag4865
ag1833
ag2145
ag3446
ag1866
ag786
ag4323
ag4845
ag73
ag4724
ag583
ag2968
ag1508
ag2077
ag4643
ag3734
ag2562
ag5531
ag582
ag5047
ag2837
ag1782
ag599
ag1298
ag4688
ag118
ag1368
ag1169
ag1421
ag4367
ag3134
ag5499
ag3636
ag3818
ag1209
ag5528
ag1542
ag1992
ag5083
ag5333
ag5377
ag2912
ag440
ag880
ag3101
ag615
ag2672
ag4637
ag2054
ag5154
ag1714
ag2331
ag2659
ag3143
ag4681
ag2992
ag539
ag5040
ag4315
ag299
ag994
ag2241
ag929
ag19
ag620
ag3931
ag2202
ag2283
ag2403
ag4592
ag1081
ag3539
ag59
ag1461
ag3401
ag4792
ag2796
ag5346
ag2474
ag1237
ag2068
ag4400
ag4012
ag3668
ag5756
ag1411
ag5443
ag631
ag4294
ag2719
ag2716
ag5988
ag2804
ag5408
ag108
ag1678
ag3961
ag4923
ag5648
ag5853
ag3113
ag1515
ag3147
ag4284
ag636
ag4466
ag5574
ag1414
ag2511
ag2141
ag2785
ag4656
ag686
ag4676
ag5052
ag991
ag1217
ag2839
ag5487
ag463
ag1707
ag969
ag2846
ag905
ag588
ag1250
ag3118
ag2518
ag3742
ag2105
ag4577
ag4151
ag768
ag5183
ag3387
ag2389
ag4564
ag3969
ag4212
ag1389
ag3093
ag265
ag5987
ag679
ag4405
ag3887
ag5049
ag1772
ag3022
ag2132
ag4722
ag5159
ag5672
ag5830
ag5224
ag5114
ag651
ag2797
ag5092
ag3846
ag1416
ag602
ag2301
ag10
ag3761
ag1681
ag3599
ag5174
ag1340
ag3791
ag4717
ag3953
ag883
ag350
ag5664
ag4189
ag5785
ag2556
ag1476
ag3808
ag5446
ag5949
ag2699
ag5005
ag1868
ag401
ag829
ag4374
ag4485
ag1214
ag517
ag2572
ag2802
ag4417
ag4220
ag4523
ag5315
ag4230
ag971
ag4298
ag4825
ag112
ag2898
ag5888
ag1321
ag5873
ag3429
ag1890
ag4457
ag4935
ag5373
ag2469
ag2221
ag1119
ag2230
ag3517
ag4024
ag4161
ag5085
ag1480
ag2998
ag4957
ag4245
ag3534
ag5615
ag2159
ag1660
ag4444
ag3656
ag4709
ag5623
ag5805
ag3130
ag1763
ag2317
ag4714
ag1628
ag2372
ag3257
ag3985
ag4654
ag452
ag65
ag5207
ag2086
ag2016
ag1544
ag4611
ag1625
ag2056
ag3943
ag1994
ag1130
ag5423
ag4329
ag4185
ag728
ag230
ag2533
ag5442
ag3963
ag4472
ag4238
ag4285
ag4456
ag930
ag4803
ag3619
ag1723
ag425
ag1814
ag1648
ag161
ag4435
ag2780
ag5522
ag1839
ag2623
ag3332
ag2405
ag4768
ag5822
ag3664
ag2726
ag3741
ag4536
ag4153
ag5978
ag2841
ag1572
ag5143
ag1083
ag1993
ag5436
ag1749
ag4749
ag5195
ag3203
ag3149
ag2192
ag5874
ag4253
ag3061
ag857
ag318
ag4062
ag5813
ag3154
ag4699
ag4134
ag1949
ag2340
ag3601
ag2611
ag4851
ag573
ag2985
ag472
ag2886
ag1456
ag821
ag837
ag4872
ag2512
ag5422
ag2541
ag3851
ag3795
ag4896
ag5087
ag5463
ag5539
ag5961
ag4131
ag886
ag4674
ag4898
ag959
ag3622
ag127
ag5772
ag2176
ag160
ag1016
ag3347
ag3157
ag1151
ag2522
ag4205
ag5967
ag4567
ag1355
ag3099
ag2755
ag5439
ag5861
ag4265
ag1536
ag1722
ag997
ag2776
ag5180
ag3286
ag1305
ag4550
ag3354
ag2092
ag2561
ag2905
ag5737
ag3794
ag5688
ag5542
ag374
ag5197
ag567
ag817
ag4921
ag3946
ag3433
ag5567
ag1655
ag3342
ag3704
ag2579
ag1651
ag5770
ag4011
ag1618
ag4168
ag532
ag1797
ag4819
ag3090
ag4201
ag3249
ag5480
ag4648
ag2212
ag2810
ag5925
ag4042
ag578
ag574
ag3476
ag4467
ag1447
ag4746
ag371
ag3965
ag3530
ag5629
ag2216
ag5261
ag1498
ag4970
ag250
ag2754
ag4875
ag4630
ag5618
ag4716
ag976
ag1040
ag1317
ag373
ag404
ag548
ag685
ag4533
ag5158
ag5200
ag2117
ag1539
ag2638
ag1406
ag3104
ag2581
ag4508
ag1719
ag4790
ag208
ag1032
ag3923
ag2769
ag1149
ag3692
ag4247
ag4721
ag5395
ag2443
ag3555
ag5118
ag5103
ag5286
ag1971
ag2591
ag4190
ag5232
ag1910
ag2768
ag2881
ag29
ag1006
ag2818
ag4576
ag1656
ag1030
ag23
ag5369
ag4454
ag3074
ag2244
ag3587
ag31
ag842
ag5998
ag4840
ag3930
ag258
ag4610
ag2112
ag2645
ag3558
ag392
ag1330
ag5216
ag5628
ag518
ag564
ag3495
ag1276
ag4831
ag1711
ag5019
ag4794
ag241
ag554
ag6003
ag558
ag3983
ag2076
ag3566
ag2526
ag2928
ag4708
ag3614
ag4445
ag3384
ag4080
ag4551
ag917
ag5950
ag5388
ag169
ag1082
ag3947
ag4844
ag2082
ag308
ag5404
ag1830
ag5193
ag4044
ag2270
ag2791
ag741
ag1115
ag5645
ag5926
ag656
ag3121
ag4409
ag2800
ag2513
ag1468
ag5003
ag4049
ag3120
ag1970
ag816
ag3039
ag4217
ag1265
ag1641
ag3685
ag879
ag1409
ag1132
ag1229
ag1533
ag1902
ag2328
ag3258
ag2136
ag2022
ag2299
ag4438
ag531
ag1747
ag3879
ag60
ag1290
ag2415
ag5517
ag5036
ag1824
ag4939
ag5825
ag3757
ag838
ag2438
ag2939
ag3366
ag5066
ag4818
ag4828
ag2205
ag422
ag4668
ag5268
ag5757
ag1673
ag3412
ag3805
ag2135
ag2218
ag4111
ag2990
ag2500
ag1652
ag5339
ag3281
ag2630
ag707
ag630
ag5744
ag1674
ag2364
ag2571
ag4750
ag1224
ag939
ag553
ag5590
ag1604
ag1960
ag3321
ag1682
ag4207
ag4426
ag382
ag5916
ag3015
ag5512
ag1010
ag1578
ag2901
ag547
ag5382
ag2181
ag992
ag4268
ag152
ag2653
ag3272
ag5028
ag1785
ag2529
ag2089
ag5222
ag5619
ag2670
ag2031
ag1646
ag5314
ag1002
ag606
ag4436
ag3363
ag3236
ag1838
ag2631
ag3306
ag3715
ag2745
ag5993
ag2234
ag5345
ag3807
ag3686
ag2790
ag986
ag4040
ag896
ag5477
ag4421
ag1327
ag3460
ag596
ag1569
ag5786
ag4587
ag898
ag5148
ag2709
ag5866
ag3439
ag2789
ag5490
ag4791
ag5956
ag1096
ag600
ag3089
ag2944
ag5173
ag3681
ag5098
ag5236
ag2142
ag4095
ag1111
ag346
ag1632
ag2321
ag3382
ag1177
ag5965
ag544
ag5099
ag2442
ag5865
ag612
ag2103
ag1684
ag2652
ag1059
ag1049
ag1231
ag3288
ag5111
ag144
ag1934
ag4089
ag3689
ag5693
ag1345
ag1510
ag5182
ag5994
ag2457
ag4090
ag550
ag874
ag1478
ag2131
ag4810
ag660
ag3175
ag5256
ag2784
ag3421
ag4510
ag3298
ag2255
ag1451
ag3479
ag5062
ag646
ag1251
ag329
ag2213
ag3603
ag1653
ag189
ag2627
ag605
ag1601
ag3674
ag5205
ag4364
ag675
ag2506
ag360
ag1425
ag2461
ag3948
ag722
ag5220
ag5326
ag34
ag3107
ag1991
ag3783
ag3137
ag5389
ag5816
ag3878
ag5763
ag2094
ag2723
ag3073
ag6002
ag253
ag2808
ag4146
ag1026
ag1856
ag5583
ag3576
ag5702
ag5808
ag1075
ag1438
ag3420
ag313
ag4382
ag218
ag3988
ag3174
ag1431
ag407
ag2897
ag941
ag1523
ag5493
ag4531
ag3106
ag5203
ag1233
ag1531
ag1410
ag3455
ag4945
ag2923
ag1945
ag6004
ag4683
ag3574
ag5149
ag3200
ag5924
ag3425
ag999
ag5778
ag5801
ag3116
ag17
ag916
ag4121
ag3422
ag5000
ag93
ag710
ag5265
ag1650
ag2502
ag3528
ag2106
ag1702
ag4077
ag2926
ag4395
ag2007
ag1935
ag5920
ag91
ag1170
ag754
ag1309
ag502
ag1259
ag2749
ag192
ag2329
ag3191
ag1254
ag3511
ag5170
ag4632
ag4984
ag542
ag1882
ag5282
ag2729
ag3338
ag4055
ag5533
ag4882
ag2238
ag4733
ag4883
ag1312
ag3392
ag355
ag5415
ag2827
ag507
ag3221
ag315
ag2179
ag4848
ag2519
ag1146
ag4594
ag3450
ag1055
ag4499
ag2390
ag3765
ag1381
ag3706
ag4608
ag5526
ag2260
ag3358
ag1337
ag4700
ag2721
ag4347
ag4966
ag5930
ag2636
ag1443
ag4836
ag493
ag4866
ag4308
ag4992
ag4661
ag5125
ag2392
ag3895
ag5015
ag2545
ag453
ag4007
ag3103
ag5179
ag748
ag5799
ag5379
ag2594
ag4832
ag4051
ag1744
ag3081
ag973
ag5661
ag2356
ag5090
ag967
ag5467
ag5466
ag2708
ag2874
ag1095
ag5576
ag345
ag3798
ag3853
ag3156
ag1908
ag2819
ag2550
ag4490
ag2265
ag3452
ag1537
ag3145
ag4489
ag5153
ag3679
ag5738
ag2959
ag5667
ag1713
ag2629
ag869
ag5840
ag3713
ag4016
ag4211
ag2460
ag2554
ag4483
ag732
ag5275
ag5566
ag338
ag5858
ag4295
ag1226
ag2728
ag3762
ag2983
ag4846
ag2574
ag4013
ag4738
ag1863
ag4964
ag4411
ag1098
ag4730
ag5424
ag2753
ag2555
ag3924
ag21
ag4390
ag4357
ag2326
ag3598
ag4613
ag4786
ag267
ag42
ag2715
ag1611
ag4470
ag5893
ag725
ag3611
ag1235
ag70
ag4213
ag4715
ag3940
ag5641
ag1689
ag2882
ag4788
ag4956
ag3980
ag5018
ag214
ag3842
ag5923
ag5697
ag2222
ag2427
ag3881
ag2684
ag4711
ag1216
ag2379
ag2702
ag3944
ag2361
ag2960
ag4586
ag3845
ag4202
ag3848
ag1145
ag5063
ag5461
ag5907
ag5613
ag4838
ag1148
ag2833
ag2557
ag508
ag5761
ag2005
ag5953
ag149
ag2185
ag2619
ag3579
ag27
ag3201
ag1286
ag5454
ag298
ag1292
ag2237
ag3214
ag676
ag1179
ag320
ag2696
ag3193
ag5263
ag38
ag5410
ag1211
ag367
ag2678
ag1810
ag3744
ag2576
ag2596
ag3041
ag201
ag795
ag703
ag4278
ag479
ag2830
ag2843
ag2786
ag697
ag3974
ag662
ag3735
ag1700
ag2835
ag5918
ag1620
ag2490
ag2220
ag5034
ag2609
ag5407
ag2170
ag616
ag2615
ag5191
ag5364
ag613
ag2357
ag3892
ag2337
ag4288
ag2829
ag193
ag537
ag1937
ag4459
ag5665
ag1612
ag3265
ag5266
ag5771
ag1983
ag1492
ag4116
ag5652
ag5469
ag1195
ag1475
ag5640
ag5787
ag5007
ag4183
ag528
ag1175
ag3540
ag3745
ag1906
ag510
ag5603
ag305
ag391
ag4476
ag1999
ag807
ag4605
ag4234
ag3094
ag2323
ag4751
ag1489
ag1255
ag5332
ag5474
ag5530
ag1837
ag1332
ag3827
ag3524
ag1592
ag5342
ag3423
ag4240
ag1497
ag2824
ag3053
ag4127
ag1924
ag878
ag3273
ag3548
ag5273
ag5901
ag1553
ag155
ag3962
ag3721
ag5489
ag4799
ag314
ag1703
ag1215
ag4880
ag4261
ag4494
ag5101
ag2794
ag1865
ag4137
ag1463
ag920
ag1750
ag2119
ag1377
ag3209
ag1588
ag319
ag2378
ag5947
ag3580
ag1387
ag1936
ag3009
ag3615
ag4817
ag292
ag936
ag1896
ag1316
ag5764
ag1068
ag1219
ag2433
ag3019
ag1773
ag5253
ag738
ag4739
ag982
ag530
ag4241
ag3952
ag4304
ag4623
ag3559
ag4968
ag1131
ag2527
ag4487
ag224
ag2175
ag2801
ag5754
ag2193
ag4773
ag3981
ag2666
ag4407
ag781
ag3334
ag4797
ag5303
ag1364
ag1047
ag246
ag5527
ag3463
ag3565
ag4719
ag4976
ag5626
ag1303
ag406
ag569
ag1938
ag105
ag5219
ag3139
ag5510
ag4318
ag1844
ag468
ag519
ag3739
ag5276
ag2391
ag2816
ag2320
ag400
ag671
ag4979
ag1036
ag867
ag853
ag923
ag2248
ag2023
ag2871
ag2543
ag4981
ag5368
ag5254
ag752
ag4371
ag4958
ag312
ag3541
ag12
ag146
ag5722
ag1806
ag4354
ag5402
ag4593
ag4764
ag295
ag3508
ag1919
ag4670
ag5500
ag3072
ag2229
ag88
ag5775
ag1037
ag1142
ag2737
ag4629
ag2654
ag2991
ag3065
ag5262
ag5847
ag5898
ag469
ag1779
ag5802
ag2338
ag5290
ag3480
ag1668
ag137
ag3732
ag4839
ag4124
ag1929
ag2236
ag3348
ag220
ag2334
ag3610
ag2208
ag2445
ag2718
ag2946
ag5390
ag4757
ag1206
ag2637
ag5781
ag3010
ag4170
ag644
ag1974
ag4565
ag3047
ag3336
ag4280
ag5025
ag3800
ag4290
ag5651
ag1638
ag4690
ag5106
ag1048
ag4299
ag830
ag1490
ag2466
ag785
ag3604
ag4098
ag4507
ag353
ag2147
ag2488
ag3155
ag5975
ag4166
ag47
ag1313
ag491
ag186
ag4056
ag5444
ag4361
ag2590
ag2834
ag4139
ag5244
ag5445
ag3408
ag2756
ag4109
ag1197
ag1746
ag2687
ag1555
ag4663
ag978
ag5980
ag3333
ag5257
ag5636
ag2011
ag5614
ag1629
ag4515
ag962
ag3657
ag4969
ag2906
ag4067
ag2951
ag5425
ag3217
ag4575
ag4816
ag1962
ag3936
ag4852
ag2394
ag2095
ag243
ag1093
ag102
ag1587
ag5033
ag993
ag92
ag4019
ag1418
ag1616
ag3557
ag5582
ag1246
ag3949
ag4239
ag1349
ag5248
ag143
ag1816
ag3717
ag1596
ag185
ag3016
ag3307
ag5300
ag3595
ag430
ag1199
ag2922
ag5416
ag740
ag2231
ag2542
ag3942
ag3998
ag274
ag5776
ag3131
ag5573
ag4209
ag5267
ag3673
ag2477
ag1740
ag5789
ag1386
ag1767
ag2032
ag4798
ag134
ag4503
ag4706
ag5571
ag1099
ag2568
ag834
ag3556
ag3311
ag5632
ag1171
ag5525
ag3643
ag5
ag368
ag2651
ag3302
ag5675
ag366
ag2920
ag4223
ag1848
ag1353
ag4696
ag4129
ag5428
ag163
ag4446
ag5968
ag3241
ag4856
ag2017
ag2125
ag2111
ag5288
ag2700
ag2948
ag3245
ag2927
ag641
ag5958
ag4704
ag476
ag760
ag3926
ag2454
ag2232
ag505
ag5347
ag1053
ag2532
ag1203
ag3303
ag1885
ag1561
ag5022
ag4335
ag294
ag699
ag217
ag470
ag3886
ag2997
ag5875
ag2351
ag3863
ag2942
ag1289
ag1566
ag5353
ag131
ag4100
ag944
ag670
ag961
ag1457
ag139
ag678
ag737
ag4458
ag4003
ag4960
ag2194
ag2544
ag1274
ag3079
ag5071
ag2514
ag5093
ag5568
ag1784
ag28
ag1295
ag3289
ag5030
ag4824
ag5335
ag770
ag5359
ag4401
ag3172
ag2072
ag5380
ag902
ag2735
ag815
ag2309
ag957
ag1074
ag1845
ag147
ag601
ag4397
ag5225
ag2885
ag2775
ag5746
ag1156
ag1256
ag3006
ag743
ag756
ag2580
ag4555
ag3110
ag924
ag2171
ag2215
ag4283
ag2090
ag3889
ag1390
ag4155
ag1623
ag342
ag5578
ag4635
ag5398
ag2124
ag4495
ag5733
ag4164
ag5731
ag1849
ag1520
ag3799
ag745
ag4961
ag142
ag3708
ag5881
ag5375
ag1161
ag4806
ag927
ag5899
ag5349
ag855
ag1436
ag2875
ag4311
ag2617
ag4383
ag4548
ag1726
ag4048
ag460
ag1444
ag2421
ag3394
ag2448
ag4631
ag5845
ag4579
ag2508
ag3825
ag5730
ag3177
ag178
ag5915
ag1761
ag41
ag4171
ag1404
ag1927
ag2288
ag2583
ag5989
ag5360
ag1947
ag2492
ag3466
ag5054
ag4072
ag5306
ag5655
ag5791
ag4482
ag1809
ag2019
ag513
ag5810
ag5909
ag1621
ag856
ag4504
ag5289
ag286
ag2876
ag3640
ag1922
ag1407
ag5560
ag5325
ag4562
ag1872
ag4332
ag5434
ag237
ag2107
ag2447
ag3835
ag5479
ag1892
ag2757
ag4430
ag1092
ag4911
ag2247
ag1046
ag3144
ag575
ag2151
ag3319
ag2916
ag1495
ag1609
ag3527
ag5809
ag1831
ag4997
ag623
ag4909
ag783
ag2429
ag2936
ag3340
ag3606
ag1662
ag4498
ag1595
ag2163
ag2747
ag4910
ag2140
ag1554
ag2087
ag2065
ag5609
ag4320
ag5452
ag5509
ag1493
ag2730
ag3989
ag3781
ag3822
ag5854
ag579
ag5431
ag3618
ag4760
ag4902
ag5116
ag1348
ag4227
ag5050
ag5904
ag604
ag1995
ag3902
ag5014
ag174
ag4671
ag2957
ag72
ag3763
ag2809
ag5686
ag1500
ag449
ag5021
ag5857
ag2029
ag2764
ag5660
ag5723
ag259
ag2428
ag2535
ag726
ag2710
ag1769
ag1854
ag2497
ag4106
ag5340
ag562
ag2587
ag2842
ag2053
ag4296
ag1019
ag5481
ag5662
ag970
ag465
ag672
ag984
ag1347
ag4745
ag2855
ag4154
ag2822
ag5283
ag3890
ag3733
ag4082
ag3882
ag3950
ag4857
ag1331
ag1391
ag990
ag3498
ag2900
ag3701
ag1549
ag5235
ag4300
ag736
ag3411
ag1691
ag3695
ag3710
ag3790
ag4665
ag164
ag195
ag1322
ag5387
ag948
ag4083
ag5485
as.